
blinkyappl.elf:     file format elf32-littlearm

Sections:
Idx Name          Size      VMA       LMA       File off  Algn
  0 .isr_vector   00000188  08008000  08008000  00008000  2**0
                  CONTENTS, ALLOC, LOAD, READONLY, DATA
  1 .text         000016a0  08008188  08008188  00008188  2**2
                  CONTENTS, ALLOC, LOAD, READONLY, CODE
  2 .rodata       00000010  08009828  08009828  00009828  2**2
                  CONTENTS, ALLOC, LOAD, READONLY, DATA
  3 .ARM.extab    00000000  08009838  08009838  0001000c  2**0
                  CONTENTS
  4 .ARM          00000008  08009838  08009838  00009838  2**2
                  CONTENTS, ALLOC, LOAD, READONLY, DATA
  5 .preinit_array 00000000  08009840  08009840  0001000c  2**0
                  CONTENTS, ALLOC, LOAD, DATA
  6 .init_array   00000004  08009840  08009840  00009840  2**2
                  CONTENTS, ALLOC, LOAD, DATA
  7 .fini_array   00000004  08009844  08009844  00009844  2**2
                  CONTENTS, ALLOC, LOAD, DATA
  8 .data         0000000c  20000000  08009848  00010000  2**2
                  CONTENTS, ALLOC, LOAD, DATA
  9 .bss          00000020  2000000c  08009854  0001000c  2**2
                  ALLOC
 10 ._user_heap_stack 00000604  2000002c  08009854  0001002c  2**0
                  ALLOC
 11 .ARM.attributes 00000030  00000000  00000000  0001000c  2**0
                  CONTENTS, READONLY
 12 .debug_info   00003a20  00000000  00000000  0001003c  2**0
                  CONTENTS, READONLY, DEBUGGING
 13 .debug_abbrev 00000d7b  00000000  00000000  00013a5c  2**0
                  CONTENTS, READONLY, DEBUGGING
 14 .debug_aranges 000003f0  00000000  00000000  000147d8  2**3
                  CONTENTS, READONLY, DEBUGGING
 15 .debug_ranges 00000368  00000000  00000000  00014bc8  2**3
                  CONTENTS, READONLY, DEBUGGING
 16 .debug_macro  0001ed09  00000000  00000000  00014f30  2**0
                  CONTENTS, READONLY, DEBUGGING
 17 .debug_line   00003f10  00000000  00000000  00033c39  2**0
                  CONTENTS, READONLY, DEBUGGING
 18 .debug_str    000bb85e  00000000  00000000  00037b49  2**0
                  CONTENTS, READONLY, DEBUGGING
 19 .comment      0000007b  00000000  00000000  000f33a7  2**0
                  CONTENTS, READONLY
 20 .debug_frame  00000e10  00000000  00000000  000f3424  2**2
                  CONTENTS, READONLY, DEBUGGING

Disassembly of section .text:

08008188 <__do_global_dtors_aux>:
 8008188:	b510      	push	{r4, lr}
 800818a:	4c05      	ldr	r4, [pc, #20]	; (80081a0 <__do_global_dtors_aux+0x18>)
 800818c:	7823      	ldrb	r3, [r4, #0]
 800818e:	b933      	cbnz	r3, 800819e <__do_global_dtors_aux+0x16>
 8008190:	4b04      	ldr	r3, [pc, #16]	; (80081a4 <__do_global_dtors_aux+0x1c>)
 8008192:	b113      	cbz	r3, 800819a <__do_global_dtors_aux+0x12>
 8008194:	4804      	ldr	r0, [pc, #16]	; (80081a8 <__do_global_dtors_aux+0x20>)
 8008196:	f3af 8000 	nop.w
 800819a:	2301      	movs	r3, #1
 800819c:	7023      	strb	r3, [r4, #0]
 800819e:	bd10      	pop	{r4, pc}
 80081a0:	2000000c 	.word	0x2000000c
 80081a4:	00000000 	.word	0x00000000
 80081a8:	08009810 	.word	0x08009810

080081ac <frame_dummy>:
 80081ac:	b508      	push	{r3, lr}
 80081ae:	4b03      	ldr	r3, [pc, #12]	; (80081bc <frame_dummy+0x10>)
 80081b0:	b11b      	cbz	r3, 80081ba <frame_dummy+0xe>
 80081b2:	4903      	ldr	r1, [pc, #12]	; (80081c0 <frame_dummy+0x14>)
 80081b4:	4803      	ldr	r0, [pc, #12]	; (80081c4 <frame_dummy+0x18>)
 80081b6:	f3af 8000 	nop.w
 80081ba:	bd08      	pop	{r3, pc}
 80081bc:	00000000 	.word	0x00000000
 80081c0:	20000010 	.word	0x20000010
 80081c4:	08009810 	.word	0x08009810

080081c8 <__aeabi_uldivmod>:
 80081c8:	b953      	cbnz	r3, 80081e0 <__aeabi_uldivmod+0x18>
 80081ca:	b94a      	cbnz	r2, 80081e0 <__aeabi_uldivmod+0x18>
 80081cc:	2900      	cmp	r1, #0
 80081ce:	bf08      	it	eq
 80081d0:	2800      	cmpeq	r0, #0
 80081d2:	bf1c      	itt	ne
 80081d4:	f04f 31ff 	movne.w	r1, #4294967295
 80081d8:	f04f 30ff 	movne.w	r0, #4294967295
 80081dc:	f000 b972 	b.w	80084c4 <__aeabi_idiv0>
 80081e0:	f1ad 0c08 	sub.w	ip, sp, #8
 80081e4:	e96d ce04 	strd	ip, lr, [sp, #-16]!
 80081e8:	f000 f806 	bl	80081f8 <__udivmoddi4>
 80081ec:	f8dd e004 	ldr.w	lr, [sp, #4]
 80081f0:	e9dd 2302 	ldrd	r2, r3, [sp, #8]
 80081f4:	b004      	add	sp, #16
 80081f6:	4770      	bx	lr

080081f8 <__udivmoddi4>:
 80081f8:	e92d 47f0 	stmdb	sp!, {r4, r5, r6, r7, r8, r9, sl, lr}
 80081fc:	9e08      	ldr	r6, [sp, #32]
 80081fe:	4604      	mov	r4, r0
 8008200:	4688      	mov	r8, r1
 8008202:	2b00      	cmp	r3, #0
 8008204:	d14b      	bne.n	800829e <__udivmoddi4+0xa6>
 8008206:	428a      	cmp	r2, r1
 8008208:	4615      	mov	r5, r2
 800820a:	d967      	bls.n	80082dc <__udivmoddi4+0xe4>
 800820c:	fab2 f282 	clz	r2, r2
 8008210:	b14a      	cbz	r2, 8008226 <__udivmoddi4+0x2e>
 8008212:	f1c2 0720 	rsb	r7, r2, #32
 8008216:	fa01 f302 	lsl.w	r3, r1, r2
 800821a:	fa20 f707 	lsr.w	r7, r0, r7
 800821e:	4095      	lsls	r5, r2
 8008220:	ea47 0803 	orr.w	r8, r7, r3
 8008224:	4094      	lsls	r4, r2
 8008226:	ea4f 4e15 	mov.w	lr, r5, lsr #16
 800822a:	0c23      	lsrs	r3, r4, #16
 800822c:	fbb8 f7fe 	udiv	r7, r8, lr
 8008230:	fa1f fc85 	uxth.w	ip, r5
 8008234:	fb0e 8817 	mls	r8, lr, r7, r8
 8008238:	ea43 4308 	orr.w	r3, r3, r8, lsl #16
 800823c:	fb07 f10c 	mul.w	r1, r7, ip
 8008240:	4299      	cmp	r1, r3
 8008242:	d909      	bls.n	8008258 <__udivmoddi4+0x60>
 8008244:	18eb      	adds	r3, r5, r3
 8008246:	f107 30ff 	add.w	r0, r7, #4294967295
 800824a:	f080 811b 	bcs.w	8008484 <__udivmoddi4+0x28c>
 800824e:	4299      	cmp	r1, r3
 8008250:	f240 8118 	bls.w	8008484 <__udivmoddi4+0x28c>
 8008254:	3f02      	subs	r7, #2
 8008256:	442b      	add	r3, r5
 8008258:	1a5b      	subs	r3, r3, r1
 800825a:	b2a4      	uxth	r4, r4
 800825c:	fbb3 f0fe 	udiv	r0, r3, lr
 8008260:	fb0e 3310 	mls	r3, lr, r0, r3
 8008264:	ea44 4403 	orr.w	r4, r4, r3, lsl #16
 8008268:	fb00 fc0c 	mul.w	ip, r0, ip
 800826c:	45a4      	cmp	ip, r4
 800826e:	d909      	bls.n	8008284 <__udivmoddi4+0x8c>
 8008270:	192c      	adds	r4, r5, r4
 8008272:	f100 33ff 	add.w	r3, r0, #4294967295
 8008276:	f080 8107 	bcs.w	8008488 <__udivmoddi4+0x290>
 800827a:	45a4      	cmp	ip, r4
 800827c:	f240 8104 	bls.w	8008488 <__udivmoddi4+0x290>
 8008280:	3802      	subs	r0, #2
 8008282:	442c      	add	r4, r5
 8008284:	ea40 4007 	orr.w	r0, r0, r7, lsl #16
 8008288:	eba4 040c 	sub.w	r4, r4, ip
 800828c:	2700      	movs	r7, #0
 800828e:	b11e      	cbz	r6, 8008298 <__udivmoddi4+0xa0>
 8008290:	40d4      	lsrs	r4, r2
 8008292:	2300      	movs	r3, #0
 8008294:	e9c6 4300 	strd	r4, r3, [r6]
 8008298:	4639      	mov	r1, r7
 800829a:	e8bd 87f0 	ldmia.w	sp!, {r4, r5, r6, r7, r8, r9, sl, pc}
 800829e:	428b      	cmp	r3, r1
 80082a0:	d909      	bls.n	80082b6 <__udivmoddi4+0xbe>
 80082a2:	2e00      	cmp	r6, #0
 80082a4:	f000 80eb 	beq.w	800847e <__udivmoddi4+0x286>
 80082a8:	2700      	movs	r7, #0
 80082aa:	e9c6 0100 	strd	r0, r1, [r6]
 80082ae:	4638      	mov	r0, r7
 80082b0:	4639      	mov	r1, r7
 80082b2:	e8bd 87f0 	ldmia.w	sp!, {r4, r5, r6, r7, r8, r9, sl, pc}
 80082b6:	fab3 f783 	clz	r7, r3
 80082ba:	2f00      	cmp	r7, #0
 80082bc:	d147      	bne.n	800834e <__udivmoddi4+0x156>
 80082be:	428b      	cmp	r3, r1
 80082c0:	d302      	bcc.n	80082c8 <__udivmoddi4+0xd0>
 80082c2:	4282      	cmp	r2, r0
 80082c4:	f200 80fa 	bhi.w	80084bc <__udivmoddi4+0x2c4>
 80082c8:	1a84      	subs	r4, r0, r2
 80082ca:	eb61 0303 	sbc.w	r3, r1, r3
 80082ce:	2001      	movs	r0, #1
 80082d0:	4698      	mov	r8, r3
 80082d2:	2e00      	cmp	r6, #0
 80082d4:	d0e0      	beq.n	8008298 <__udivmoddi4+0xa0>
 80082d6:	e9c6 4800 	strd	r4, r8, [r6]
 80082da:	e7dd      	b.n	8008298 <__udivmoddi4+0xa0>
 80082dc:	b902      	cbnz	r2, 80082e0 <__udivmoddi4+0xe8>
 80082de:	deff      	udf	#255	; 0xff
 80082e0:	fab2 f282 	clz	r2, r2
 80082e4:	2a00      	cmp	r2, #0
 80082e6:	f040 808f 	bne.w	8008408 <__udivmoddi4+0x210>
 80082ea:	1b49      	subs	r1, r1, r5
 80082ec:	ea4f 4e15 	mov.w	lr, r5, lsr #16
 80082f0:	fa1f f885 	uxth.w	r8, r5
 80082f4:	2701      	movs	r7, #1
 80082f6:	fbb1 fcfe 	udiv	ip, r1, lr
 80082fa:	0c23      	lsrs	r3, r4, #16
 80082fc:	fb0e 111c 	mls	r1, lr, ip, r1
 8008300:	ea43 4301 	orr.w	r3, r3, r1, lsl #16
 8008304:	fb08 f10c 	mul.w	r1, r8, ip
 8008308:	4299      	cmp	r1, r3
 800830a:	d907      	bls.n	800831c <__udivmoddi4+0x124>
 800830c:	18eb      	adds	r3, r5, r3
 800830e:	f10c 30ff 	add.w	r0, ip, #4294967295
 8008312:	d202      	bcs.n	800831a <__udivmoddi4+0x122>
 8008314:	4299      	cmp	r1, r3
 8008316:	f200 80cd 	bhi.w	80084b4 <__udivmoddi4+0x2bc>
 800831a:	4684      	mov	ip, r0
 800831c:	1a59      	subs	r1, r3, r1
 800831e:	b2a3      	uxth	r3, r4
 8008320:	fbb1 f0fe 	udiv	r0, r1, lr
 8008324:	fb0e 1410 	mls	r4, lr, r0, r1
 8008328:	ea43 4404 	orr.w	r4, r3, r4, lsl #16
 800832c:	fb08 f800 	mul.w	r8, r8, r0
 8008330:	45a0      	cmp	r8, r4
 8008332:	d907      	bls.n	8008344 <__udivmoddi4+0x14c>
 8008334:	192c      	adds	r4, r5, r4
 8008336:	f100 33ff 	add.w	r3, r0, #4294967295
 800833a:	d202      	bcs.n	8008342 <__udivmoddi4+0x14a>
 800833c:	45a0      	cmp	r8, r4
 800833e:	f200 80b6 	bhi.w	80084ae <__udivmoddi4+0x2b6>
 8008342:	4618      	mov	r0, r3
 8008344:	eba4 0408 	sub.w	r4, r4, r8
 8008348:	ea40 400c 	orr.w	r0, r0, ip, lsl #16
 800834c:	e79f      	b.n	800828e <__udivmoddi4+0x96>
 800834e:	f1c7 0c20 	rsb	ip, r7, #32
 8008352:	40bb      	lsls	r3, r7
 8008354:	fa22 fe0c 	lsr.w	lr, r2, ip
 8008358:	ea4e 0e03 	orr.w	lr, lr, r3
 800835c:	fa01 f407 	lsl.w	r4, r1, r7
 8008360:	fa20 f50c 	lsr.w	r5, r0, ip
 8008364:	fa21 f30c 	lsr.w	r3, r1, ip
 8008368:	ea4f 481e 	mov.w	r8, lr, lsr #16
 800836c:	4325      	orrs	r5, r4
 800836e:	fbb3 f9f8 	udiv	r9, r3, r8
 8008372:	0c2c      	lsrs	r4, r5, #16
 8008374:	fb08 3319 	mls	r3, r8, r9, r3
 8008378:	fa1f fa8e 	uxth.w	sl, lr
 800837c:	ea44 4303 	orr.w	r3, r4, r3, lsl #16
 8008380:	fb09 f40a 	mul.w	r4, r9, sl
 8008384:	429c      	cmp	r4, r3
 8008386:	fa02 f207 	lsl.w	r2, r2, r7
 800838a:	fa00 f107 	lsl.w	r1, r0, r7
 800838e:	d90b      	bls.n	80083a8 <__udivmoddi4+0x1b0>
 8008390:	eb1e 0303 	adds.w	r3, lr, r3
 8008394:	f109 30ff 	add.w	r0, r9, #4294967295
 8008398:	f080 8087 	bcs.w	80084aa <__udivmoddi4+0x2b2>
 800839c:	429c      	cmp	r4, r3
 800839e:	f240 8084 	bls.w	80084aa <__udivmoddi4+0x2b2>
 80083a2:	f1a9 0902 	sub.w	r9, r9, #2
 80083a6:	4473      	add	r3, lr
 80083a8:	1b1b      	subs	r3, r3, r4
 80083aa:	b2ad      	uxth	r5, r5
 80083ac:	fbb3 f0f8 	udiv	r0, r3, r8
 80083b0:	fb08 3310 	mls	r3, r8, r0, r3
 80083b4:	ea45 4403 	orr.w	r4, r5, r3, lsl #16
 80083b8:	fb00 fa0a 	mul.w	sl, r0, sl
 80083bc:	45a2      	cmp	sl, r4
 80083be:	d908      	bls.n	80083d2 <__udivmoddi4+0x1da>
 80083c0:	eb1e 0404 	adds.w	r4, lr, r4
 80083c4:	f100 33ff 	add.w	r3, r0, #4294967295
 80083c8:	d26b      	bcs.n	80084a2 <__udivmoddi4+0x2aa>
 80083ca:	45a2      	cmp	sl, r4
 80083cc:	d969      	bls.n	80084a2 <__udivmoddi4+0x2aa>
 80083ce:	3802      	subs	r0, #2
 80083d0:	4474      	add	r4, lr
 80083d2:	ea40 4009 	orr.w	r0, r0, r9, lsl #16
 80083d6:	fba0 8902 	umull	r8, r9, r0, r2
 80083da:	eba4 040a 	sub.w	r4, r4, sl
 80083de:	454c      	cmp	r4, r9
 80083e0:	46c2      	mov	sl, r8
 80083e2:	464b      	mov	r3, r9
 80083e4:	d354      	bcc.n	8008490 <__udivmoddi4+0x298>
 80083e6:	d051      	beq.n	800848c <__udivmoddi4+0x294>
 80083e8:	2e00      	cmp	r6, #0
 80083ea:	d069      	beq.n	80084c0 <__udivmoddi4+0x2c8>
 80083ec:	ebb1 050a 	subs.w	r5, r1, sl
 80083f0:	eb64 0403 	sbc.w	r4, r4, r3
 80083f4:	fa04 fc0c 	lsl.w	ip, r4, ip
 80083f8:	40fd      	lsrs	r5, r7
 80083fa:	40fc      	lsrs	r4, r7
 80083fc:	ea4c 0505 	orr.w	r5, ip, r5
 8008400:	e9c6 5400 	strd	r5, r4, [r6]
 8008404:	2700      	movs	r7, #0
 8008406:	e747      	b.n	8008298 <__udivmoddi4+0xa0>
 8008408:	f1c2 0320 	rsb	r3, r2, #32
 800840c:	fa20 f703 	lsr.w	r7, r0, r3
 8008410:	4095      	lsls	r5, r2
 8008412:	fa01 f002 	lsl.w	r0, r1, r2
 8008416:	fa21 f303 	lsr.w	r3, r1, r3
 800841a:	ea4f 4e15 	mov.w	lr, r5, lsr #16
 800841e:	4338      	orrs	r0, r7
 8008420:	0c01      	lsrs	r1, r0, #16
 8008422:	fbb3 f7fe 	udiv	r7, r3, lr
 8008426:	fa1f f885 	uxth.w	r8, r5
 800842a:	fb0e 3317 	mls	r3, lr, r7, r3
 800842e:	ea41 4103 	orr.w	r1, r1, r3, lsl #16
 8008432:	fb07 f308 	mul.w	r3, r7, r8
 8008436:	428b      	cmp	r3, r1
 8008438:	fa04 f402 	lsl.w	r4, r4, r2
 800843c:	d907      	bls.n	800844e <__udivmoddi4+0x256>
 800843e:	1869      	adds	r1, r5, r1
 8008440:	f107 3cff 	add.w	ip, r7, #4294967295
 8008444:	d22f      	bcs.n	80084a6 <__udivmoddi4+0x2ae>
 8008446:	428b      	cmp	r3, r1
 8008448:	d92d      	bls.n	80084a6 <__udivmoddi4+0x2ae>
 800844a:	3f02      	subs	r7, #2
 800844c:	4429      	add	r1, r5
 800844e:	1acb      	subs	r3, r1, r3
 8008450:	b281      	uxth	r1, r0
 8008452:	fbb3 f0fe 	udiv	r0, r3, lr
 8008456:	fb0e 3310 	mls	r3, lr, r0, r3
 800845a:	ea41 4103 	orr.w	r1, r1, r3, lsl #16
 800845e:	fb00 f308 	mul.w	r3, r0, r8
 8008462:	428b      	cmp	r3, r1
 8008464:	d907      	bls.n	8008476 <__udivmoddi4+0x27e>
 8008466:	1869      	adds	r1, r5, r1
 8008468:	f100 3cff 	add.w	ip, r0, #4294967295
 800846c:	d217      	bcs.n	800849e <__udivmoddi4+0x2a6>
 800846e:	428b      	cmp	r3, r1
 8008470:	d915      	bls.n	800849e <__udivmoddi4+0x2a6>
 8008472:	3802      	subs	r0, #2
 8008474:	4429      	add	r1, r5
 8008476:	1ac9      	subs	r1, r1, r3
 8008478:	ea40 4707 	orr.w	r7, r0, r7, lsl #16
 800847c:	e73b      	b.n	80082f6 <__udivmoddi4+0xfe>
 800847e:	4637      	mov	r7, r6
 8008480:	4630      	mov	r0, r6
 8008482:	e709      	b.n	8008298 <__udivmoddi4+0xa0>
 8008484:	4607      	mov	r7, r0
 8008486:	e6e7      	b.n	8008258 <__udivmoddi4+0x60>
 8008488:	4618      	mov	r0, r3
 800848a:	e6fb      	b.n	8008284 <__udivmoddi4+0x8c>
 800848c:	4541      	cmp	r1, r8
 800848e:	d2ab      	bcs.n	80083e8 <__udivmoddi4+0x1f0>
 8008490:	ebb8 0a02 	subs.w	sl, r8, r2
 8008494:	eb69 020e 	sbc.w	r2, r9, lr
 8008498:	3801      	subs	r0, #1
 800849a:	4613      	mov	r3, r2
 800849c:	e7a4      	b.n	80083e8 <__udivmoddi4+0x1f0>
 800849e:	4660      	mov	r0, ip
 80084a0:	e7e9      	b.n	8008476 <__udivmoddi4+0x27e>
 80084a2:	4618      	mov	r0, r3
 80084a4:	e795      	b.n	80083d2 <__udivmoddi4+0x1da>
 80084a6:	4667      	mov	r7, ip
 80084a8:	e7d1      	b.n	800844e <__udivmoddi4+0x256>
 80084aa:	4681      	mov	r9, r0
 80084ac:	e77c      	b.n	80083a8 <__udivmoddi4+0x1b0>
 80084ae:	3802      	subs	r0, #2
 80084b0:	442c      	add	r4, r5
 80084b2:	e747      	b.n	8008344 <__udivmoddi4+0x14c>
 80084b4:	f1ac 0c02 	sub.w	ip, ip, #2
 80084b8:	442b      	add	r3, r5
 80084ba:	e72f      	b.n	800831c <__udivmoddi4+0x124>
 80084bc:	4638      	mov	r0, r7
 80084be:	e708      	b.n	80082d2 <__udivmoddi4+0xda>
 80084c0:	4637      	mov	r7, r6
 80084c2:	e6e9      	b.n	8008298 <__udivmoddi4+0xa0>

080084c4 <__aeabi_idiv0>:
 80084c4:	4770      	bx	lr
 80084c6:	bf00      	nop

080084c8 <main>:
/**
  * @brief  The application entry point.
  * @retval int
  */
int main(void)
{
 80084c8:	b580      	push	{r7, lr}
 80084ca:	af00      	add	r7, sp, #0
  /* USER CODE END 1 */

  /* MCU Configuration--------------------------------------------------------*/

  /* Reset of all peripherals, Initializes the Flash interface and the Systick. */
  HAL_Init();
 80084cc:	f000 f9fe 	bl	80088cc <HAL_Init>
  /* USER CODE BEGIN Init */

  /* USER CODE END Init */

  /* Configure the system clock */
  SystemClock_Config();
 80084d0:	f000 f820 	bl	8008514 <SystemClock_Config>
  /* USER CODE BEGIN SysInit */

  /* USER CODE END SysInit */

  /* Initialize all configured peripherals */
  MX_GPIO_Init();
 80084d4:	f000 f888 	bl	80085e8 <MX_GPIO_Init>
//	  HAL_Delay(100);
//	  HAL_GPIO_TogglePin(GPIOD, LD5_Pin);
//	  HAL_GPIO_TogglePin(GPIOD, LD6_Pin);
//	  HAL_Delay(100);
//	  HAL_GPIO_TogglePin(GPIOD, LD6_Pin);
	  HAL_GPIO_TogglePin(GPIOD, LD4_Pin);
 80084d8:	f44f 5180 	mov.w	r1, #4096	; 0x1000
 80084dc:	480c      	ldr	r0, [pc, #48]	; (8008510 <main+0x48>)
 80084de:	f000 fd22 	bl	8008f26 <HAL_GPIO_TogglePin>
	  HAL_Delay(100);
 80084e2:	2064      	movs	r0, #100	; 0x64
 80084e4:	f000 fa64 	bl	80089b0 <HAL_Delay>
	  HAL_GPIO_TogglePin(GPIOD, LD4_Pin);
 80084e8:	f44f 5180 	mov.w	r1, #4096	; 0x1000
 80084ec:	4808      	ldr	r0, [pc, #32]	; (8008510 <main+0x48>)
 80084ee:	f000 fd1a 	bl	8008f26 <HAL_GPIO_TogglePin>
	  HAL_GPIO_TogglePin(GPIOD, LD3_Pin);
 80084f2:	f44f 5100 	mov.w	r1, #8192	; 0x2000
 80084f6:	4806      	ldr	r0, [pc, #24]	; (8008510 <main+0x48>)
 80084f8:	f000 fd15 	bl	8008f26 <HAL_GPIO_TogglePin>
	  HAL_Delay(100);
 80084fc:	2064      	movs	r0, #100	; 0x64
 80084fe:	f000 fa57 	bl	80089b0 <HAL_Delay>
	  HAL_GPIO_TogglePin(GPIOD, LD3_Pin);
 8008502:	f44f 5100 	mov.w	r1, #8192	; 0x2000
 8008506:	4802      	ldr	r0, [pc, #8]	; (8008510 <main+0x48>)
 8008508:	f000 fd0d 	bl	8008f26 <HAL_GPIO_TogglePin>
	  HAL_GPIO_TogglePin(GPIOD, LD4_Pin);
 800850c:	e7e4      	b.n	80084d8 <main+0x10>
 800850e:	bf00      	nop
 8008510:	40020c00 	.word	0x40020c00

08008514 <SystemClock_Config>:
/**
  * @brief System Clock Configuration
  * @retval None
  */
void SystemClock_Config(void)
{
 8008514:	b580      	push	{r7, lr}
 8008516:	b094      	sub	sp, #80	; 0x50
 8008518:	af00      	add	r7, sp, #0
  RCC_OscInitTypeDef RCC_OscInitStruct = {0};
 800851a:	f107 0320 	add.w	r3, r7, #32
 800851e:	2230      	movs	r2, #48	; 0x30
 8008520:	2100      	movs	r1, #0
 8008522:	4618      	mov	r0, r3
 8008524:	f001 f96c 	bl	8009800 <memset>
  RCC_ClkInitTypeDef RCC_ClkInitStruct = {0};
 8008528:	f107 030c 	add.w	r3, r7, #12
 800852c:	2200      	movs	r2, #0
 800852e:	601a      	str	r2, [r3, #0]
 8008530:	605a      	str	r2, [r3, #4]
 8008532:	609a      	str	r2, [r3, #8]
 8008534:	60da      	str	r2, [r3, #12]
 8008536:	611a      	str	r2, [r3, #16]

  /** Configure the main internal regulator output voltage
  */
  __HAL_RCC_PWR_CLK_ENABLE();
 8008538:	2300      	movs	r3, #0
 800853a:	60bb      	str	r3, [r7, #8]
 800853c:	4b28      	ldr	r3, [pc, #160]	; (80085e0 <SystemClock_Config+0xcc>)
 800853e:	6c1b      	ldr	r3, [r3, #64]	; 0x40
 8008540:	4a27      	ldr	r2, [pc, #156]	; (80085e0 <SystemClock_Config+0xcc>)
 8008542:	f043 5380 	orr.w	r3, r3, #268435456	; 0x10000000
 8008546:	6413      	str	r3, [r2, #64]	; 0x40
 8008548:	4b25      	ldr	r3, [pc, #148]	; (80085e0 <SystemClock_Config+0xcc>)
 800854a:	6c1b      	ldr	r3, [r3, #64]	; 0x40
 800854c:	f003 5380 	and.w	r3, r3, #268435456	; 0x10000000
 8008550:	60bb      	str	r3, [r7, #8]
 8008552:	68bb      	ldr	r3, [r7, #8]
  __HAL_PWR_VOLTAGESCALING_CONFIG(PWR_REGULATOR_VOLTAGE_SCALE1);
 8008554:	2300      	movs	r3, #0
 8008556:	607b      	str	r3, [r7, #4]
 8008558:	4b22      	ldr	r3, [pc, #136]	; (80085e4 <SystemClock_Config+0xd0>)
 800855a:	681b      	ldr	r3, [r3, #0]
 800855c:	4a21      	ldr	r2, [pc, #132]	; (80085e4 <SystemClock_Config+0xd0>)
 800855e:	f443 4380 	orr.w	r3, r3, #16384	; 0x4000
 8008562:	6013      	str	r3, [r2, #0]
 8008564:	4b1f      	ldr	r3, [pc, #124]	; (80085e4 <SystemClock_Config+0xd0>)
 8008566:	681b      	ldr	r3, [r3, #0]
 8008568:	f403 4380 	and.w	r3, r3, #16384	; 0x4000
 800856c:	607b      	str	r3, [r7, #4]
 800856e:	687b      	ldr	r3, [r7, #4]
  /** Initializes the RCC Oscillators according to the specified parameters
  * in the RCC_OscInitTypeDef structure.
  */
  RCC_OscInitStruct.OscillatorType = RCC_OSCILLATORTYPE_HSE;
 8008570:	2301      	movs	r3, #1
 8008572:	623b      	str	r3, [r7, #32]
  RCC_OscInitStruct.HSEState = RCC_HSE_ON;
 8008574:	f44f 3380 	mov.w	r3, #65536	; 0x10000
 8008578:	627b      	str	r3, [r7, #36]	; 0x24
  RCC_OscInitStruct.PLL.PLLState = RCC_PLL_ON;
 800857a:	2302      	movs	r3, #2
 800857c:	63bb      	str	r3, [r7, #56]	; 0x38
  RCC_OscInitStruct.PLL.PLLSource = RCC_PLLSOURCE_HSE;
 800857e:	f44f 0380 	mov.w	r3, #4194304	; 0x400000
 8008582:	63fb      	str	r3, [r7, #60]	; 0x3c
  RCC_OscInitStruct.PLL.PLLM = 8;
 8008584:	2308      	movs	r3, #8
 8008586:	643b      	str	r3, [r7, #64]	; 0x40
  RCC_OscInitStruct.PLL.PLLN = 336;
 8008588:	f44f 73a8 	mov.w	r3, #336	; 0x150
 800858c:	647b      	str	r3, [r7, #68]	; 0x44
  RCC_OscInitStruct.PLL.PLLP = RCC_PLLP_DIV2;
 800858e:	2302      	movs	r3, #2
 8008590:	64bb      	str	r3, [r7, #72]	; 0x48
  RCC_OscInitStruct.PLL.PLLQ = 7;
 8008592:	2307      	movs	r3, #7
 8008594:	64fb      	str	r3, [r7, #76]	; 0x4c
  if (HAL_RCC_OscConfig(&RCC_OscInitStruct) != HAL_OK)
 8008596:	f107 0320 	add.w	r3, r7, #32
 800859a:	4618      	mov	r0, r3
 800859c:	f000 fcde 	bl	8008f5c <HAL_RCC_OscConfig>
 80085a0:	4603      	mov	r3, r0
 80085a2:	2b00      	cmp	r3, #0
 80085a4:	d001      	beq.n	80085aa <SystemClock_Config+0x96>
  {
    Error_Handler();
 80085a6:	f000 f8fb 	bl	80087a0 <Error_Handler>
  }
  /** Initializes the CPU, AHB and APB buses clocks
  */
  RCC_ClkInitStruct.ClockType = RCC_CLOCKTYPE_HCLK|RCC_CLOCKTYPE_SYSCLK
 80085aa:	230f      	movs	r3, #15
 80085ac:	60fb      	str	r3, [r7, #12]
                              |RCC_CLOCKTYPE_PCLK1|RCC_CLOCKTYPE_PCLK2;
  RCC_ClkInitStruct.SYSCLKSource = RCC_SYSCLKSOURCE_PLLCLK;
 80085ae:	2302      	movs	r3, #2
 80085b0:	613b      	str	r3, [r7, #16]
  RCC_ClkInitStruct.AHBCLKDivider = RCC_SYSCLK_DIV1;
 80085b2:	2300      	movs	r3, #0
 80085b4:	617b      	str	r3, [r7, #20]
  RCC_ClkInitStruct.APB1CLKDivider = RCC_HCLK_DIV4;
 80085b6:	f44f 53a0 	mov.w	r3, #5120	; 0x1400
 80085ba:	61bb      	str	r3, [r7, #24]
  RCC_ClkInitStruct.APB2CLKDivider = RCC_HCLK_DIV2;
 80085bc:	f44f 5380 	mov.w	r3, #4096	; 0x1000
 80085c0:	61fb      	str	r3, [r7, #28]

  if (HAL_RCC_ClockConfig(&RCC_ClkInitStruct, FLASH_LATENCY_5) != HAL_OK)
 80085c2:	f107 030c 	add.w	r3, r7, #12
 80085c6:	2105      	movs	r1, #5
 80085c8:	4618      	mov	r0, r3
 80085ca:	f000 ff37 	bl	800943c <HAL_RCC_ClockConfig>
 80085ce:	4603      	mov	r3, r0
 80085d0:	2b00      	cmp	r3, #0
 80085d2:	d001      	beq.n	80085d8 <SystemClock_Config+0xc4>
  {
    Error_Handler();
 80085d4:	f000 f8e4 	bl	80087a0 <Error_Handler>
  }
}
 80085d8:	bf00      	nop
 80085da:	3750      	adds	r7, #80	; 0x50
 80085dc:	46bd      	mov	sp, r7
 80085de:	bd80      	pop	{r7, pc}
 80085e0:	40023800 	.word	0x40023800
 80085e4:	40007000 	.word	0x40007000

080085e8 <MX_GPIO_Init>:
  * @brief GPIO Initialization Function
  * @param None
  * @retval None
  */
static void MX_GPIO_Init(void)
{
 80085e8:	b580      	push	{r7, lr}
 80085ea:	b08c      	sub	sp, #48	; 0x30
 80085ec:	af00      	add	r7, sp, #0
  GPIO_InitTypeDef GPIO_InitStruct = {0};
 80085ee:	f107 031c 	add.w	r3, r7, #28
 80085f2:	2200      	movs	r2, #0
 80085f4:	601a      	str	r2, [r3, #0]
 80085f6:	605a      	str	r2, [r3, #4]
 80085f8:	609a      	str	r2, [r3, #8]
 80085fa:	60da      	str	r2, [r3, #12]
 80085fc:	611a      	str	r2, [r3, #16]

  /* GPIO Ports Clock Enable */
  __HAL_RCC_GPIOE_CLK_ENABLE();
 80085fe:	2300      	movs	r3, #0
 8008600:	61bb      	str	r3, [r7, #24]
 8008602:	4b60      	ldr	r3, [pc, #384]	; (8008784 <MX_GPIO_Init+0x19c>)
 8008604:	6b1b      	ldr	r3, [r3, #48]	; 0x30
 8008606:	4a5f      	ldr	r2, [pc, #380]	; (8008784 <MX_GPIO_Init+0x19c>)
 8008608:	f043 0310 	orr.w	r3, r3, #16
 800860c:	6313      	str	r3, [r2, #48]	; 0x30
 800860e:	4b5d      	ldr	r3, [pc, #372]	; (8008784 <MX_GPIO_Init+0x19c>)
 8008610:	6b1b      	ldr	r3, [r3, #48]	; 0x30
 8008612:	f003 0310 	and.w	r3, r3, #16
 8008616:	61bb      	str	r3, [r7, #24]
 8008618:	69bb      	ldr	r3, [r7, #24]
  __HAL_RCC_GPIOC_CLK_ENABLE();
 800861a:	2300      	movs	r3, #0
 800861c:	617b      	str	r3, [r7, #20]
 800861e:	4b59      	ldr	r3, [pc, #356]	; (8008784 <MX_GPIO_Init+0x19c>)
 8008620:	6b1b      	ldr	r3, [r3, #48]	; 0x30
 8008622:	4a58      	ldr	r2, [pc, #352]	; (8008784 <MX_GPIO_Init+0x19c>)
 8008624:	f043 0304 	orr.w	r3, r3, #4
 8008628:	6313      	str	r3, [r2, #48]	; 0x30
 800862a:	4b56      	ldr	r3, [pc, #344]	; (8008784 <MX_GPIO_Init+0x19c>)
 800862c:	6b1b      	ldr	r3, [r3, #48]	; 0x30
 800862e:	f003 0304 	and.w	r3, r3, #4
 8008632:	617b      	str	r3, [r7, #20]
 8008634:	697b      	ldr	r3, [r7, #20]
  __HAL_RCC_GPIOH_CLK_ENABLE();
 8008636:	2300      	movs	r3, #0
 8008638:	613b      	str	r3, [r7, #16]
 800863a:	4b52      	ldr	r3, [pc, #328]	; (8008784 <MX_GPIO_Init+0x19c>)
 800863c:	6b1b      	ldr	r3, [r3, #48]	; 0x30
 800863e:	4a51      	ldr	r2, [pc, #324]	; (8008784 <MX_GPIO_Init+0x19c>)
 8008640:	f043 0380 	orr.w	r3, r3, #128	; 0x80
 8008644:	6313      	str	r3, [r2, #48]	; 0x30
 8008646:	4b4f      	ldr	r3, [pc, #316]	; (8008784 <MX_GPIO_Init+0x19c>)
 8008648:	6b1b      	ldr	r3, [r3, #48]	; 0x30
 800864a:	f003 0380 	and.w	r3, r3, #128	; 0x80
 800864e:	613b      	str	r3, [r7, #16]
 8008650:	693b      	ldr	r3, [r7, #16]
  __HAL_RCC_GPIOA_CLK_ENABLE();
 8008652:	2300      	movs	r3, #0
 8008654:	60fb      	str	r3, [r7, #12]
 8008656:	4b4b      	ldr	r3, [pc, #300]	; (8008784 <MX_GPIO_Init+0x19c>)
 8008658:	6b1b      	ldr	r3, [r3, #48]	; 0x30
 800865a:	4a4a      	ldr	r2, [pc, #296]	; (8008784 <MX_GPIO_Init+0x19c>)
 800865c:	f043 0301 	orr.w	r3, r3, #1
 8008660:	6313      	str	r3, [r2, #48]	; 0x30
 8008662:	4b48      	ldr	r3, [pc, #288]	; (8008784 <MX_GPIO_Init+0x19c>)
 8008664:	6b1b      	ldr	r3, [r3, #48]	; 0x30
 8008666:	f003 0301 	and.w	r3, r3, #1
 800866a:	60fb      	str	r3, [r7, #12]
 800866c:	68fb      	ldr	r3, [r7, #12]
  __HAL_RCC_GPIOB_CLK_ENABLE();
 800866e:	2300      	movs	r3, #0
 8008670:	60bb      	str	r3, [r7, #8]
 8008672:	4b44      	ldr	r3, [pc, #272]	; (8008784 <MX_GPIO_Init+0x19c>)
 8008674:	6b1b      	ldr	r3, [r3, #48]	; 0x30
 8008676:	4a43      	ldr	r2, [pc, #268]	; (8008784 <MX_GPIO_Init+0x19c>)
 8008678:	f043 0302 	orr.w	r3, r3, #2
 800867c:	6313      	str	r3, [r2, #48]	; 0x30
 800867e:	4b41      	ldr	r3, [pc, #260]	; (8008784 <MX_GPIO_Init+0x19c>)
 8008680:	6b1b      	ldr	r3, [r3, #48]	; 0x30
 8008682:	f003 0302 	and.w	r3, r3, #2
 8008686:	60bb      	str	r3, [r7, #8]
 8008688:	68bb      	ldr	r3, [r7, #8]
  __HAL_RCC_GPIOD_CLK_ENABLE();
 800868a:	2300      	movs	r3, #0
 800868c:	607b      	str	r3, [r7, #4]
 800868e:	4b3d      	ldr	r3, [pc, #244]	; (8008784 <MX_GPIO_Init+0x19c>)
 8008690:	6b1b      	ldr	r3, [r3, #48]	; 0x30
 8008692:	4a3c      	ldr	r2, [pc, #240]	; (8008784 <MX_GPIO_Init+0x19c>)
 8008694:	f043 0308 	orr.w	r3, r3, #8
 8008698:	6313      	str	r3, [r2, #48]	; 0x30
 800869a:	4b3a      	ldr	r3, [pc, #232]	; (8008784 <MX_GPIO_Init+0x19c>)
 800869c:	6b1b      	ldr	r3, [r3, #48]	; 0x30
 800869e:	f003 0308 	and.w	r3, r3, #8
 80086a2:	607b      	str	r3, [r7, #4]
 80086a4:	687b      	ldr	r3, [r7, #4]

  /*Configure GPIO pin Output Level */
  HAL_GPIO_WritePin(CS_I2C_SPI_GPIO_Port, CS_I2C_SPI_Pin, GPIO_PIN_RESET);
 80086a6:	2200      	movs	r2, #0
 80086a8:	2108      	movs	r1, #8
 80086aa:	4837      	ldr	r0, [pc, #220]	; (8008788 <MX_GPIO_Init+0x1a0>)
 80086ac:	f000 fc22 	bl	8008ef4 <HAL_GPIO_WritePin>

  /*Configure GPIO pin Output Level */
  HAL_GPIO_WritePin(OTG_FS_PowerSwitchOn_GPIO_Port, OTG_FS_PowerSwitchOn_Pin, GPIO_PIN_SET);
 80086b0:	2201      	movs	r2, #1
 80086b2:	2101      	movs	r1, #1
 80086b4:	4835      	ldr	r0, [pc, #212]	; (800878c <MX_GPIO_Init+0x1a4>)
 80086b6:	f000 fc1d 	bl	8008ef4 <HAL_GPIO_WritePin>

  /*Configure GPIO pin Output Level */
  HAL_GPIO_WritePin(GPIOD, LD4_Pin|LD3_Pin|LD5_Pin|LD6_Pin
 80086ba:	2200      	movs	r2, #0
 80086bc:	f24f 0110 	movw	r1, #61456	; 0xf010
 80086c0:	4833      	ldr	r0, [pc, #204]	; (8008790 <MX_GPIO_Init+0x1a8>)
 80086c2:	f000 fc17 	bl	8008ef4 <HAL_GPIO_WritePin>
                          |Audio_RST_Pin, GPIO_PIN_RESET);

  /*Configure GPIO pin : CS_I2C_SPI_Pin */
  GPIO_InitStruct.Pin = CS_I2C_SPI_Pin;
 80086c6:	2308      	movs	r3, #8
 80086c8:	61fb      	str	r3, [r7, #28]
  GPIO_InitStruct.Mode = GPIO_MODE_OUTPUT_PP;
 80086ca:	2301      	movs	r3, #1
 80086cc:	623b      	str	r3, [r7, #32]
  GPIO_InitStruct.Pull = GPIO_NOPULL;
 80086ce:	2300      	movs	r3, #0
 80086d0:	627b      	str	r3, [r7, #36]	; 0x24
  GPIO_InitStruct.Speed = GPIO_SPEED_FREQ_LOW;
 80086d2:	2300      	movs	r3, #0
 80086d4:	62bb      	str	r3, [r7, #40]	; 0x28
  HAL_GPIO_Init(CS_I2C_SPI_GPIO_Port, &GPIO_InitStruct);
 80086d6:	f107 031c 	add.w	r3, r7, #28
 80086da:	4619      	mov	r1, r3
 80086dc:	482a      	ldr	r0, [pc, #168]	; (8008788 <MX_GPIO_Init+0x1a0>)
 80086de:	f000 fa6f 	bl	8008bc0 <HAL_GPIO_Init>

  /*Configure GPIO pin : OTG_FS_PowerSwitchOn_Pin */
  GPIO_InitStruct.Pin = OTG_FS_PowerSwitchOn_Pin;
 80086e2:	2301      	movs	r3, #1
 80086e4:	61fb      	str	r3, [r7, #28]
  GPIO_InitStruct.Mode = GPIO_MODE_OUTPUT_PP;
 80086e6:	2301      	movs	r3, #1
 80086e8:	623b      	str	r3, [r7, #32]
  GPIO_InitStruct.Pull = GPIO_NOPULL;
 80086ea:	2300      	movs	r3, #0
 80086ec:	627b      	str	r3, [r7, #36]	; 0x24
  GPIO_InitStruct.Speed = GPIO_SPEED_FREQ_LOW;
 80086ee:	2300      	movs	r3, #0
 80086f0:	62bb      	str	r3, [r7, #40]	; 0x28
  HAL_GPIO_Init(OTG_FS_PowerSwitchOn_GPIO_Port, &GPIO_InitStruct);
 80086f2:	f107 031c 	add.w	r3, r7, #28
 80086f6:	4619      	mov	r1, r3
 80086f8:	4824      	ldr	r0, [pc, #144]	; (800878c <MX_GPIO_Init+0x1a4>)
 80086fa:	f000 fa61 	bl	8008bc0 <HAL_GPIO_Init>

  /*Configure GPIO pin : B1_Pin */
  GPIO_InitStruct.Pin = B1_Pin;
 80086fe:	2301      	movs	r3, #1
 8008700:	61fb      	str	r3, [r7, #28]
  GPIO_InitStruct.Mode = GPIO_MODE_EVT_RISING;
 8008702:	4b24      	ldr	r3, [pc, #144]	; (8008794 <MX_GPIO_Init+0x1ac>)
 8008704:	623b      	str	r3, [r7, #32]
  GPIO_InitStruct.Pull = GPIO_NOPULL;
 8008706:	2300      	movs	r3, #0
 8008708:	627b      	str	r3, [r7, #36]	; 0x24
  HAL_GPIO_Init(B1_GPIO_Port, &GPIO_InitStruct);
 800870a:	f107 031c 	add.w	r3, r7, #28
 800870e:	4619      	mov	r1, r3
 8008710:	4821      	ldr	r0, [pc, #132]	; (8008798 <MX_GPIO_Init+0x1b0>)
 8008712:	f000 fa55 	bl	8008bc0 <HAL_GPIO_Init>

  /*Configure GPIO pin : BOOT1_Pin */
  GPIO_InitStruct.Pin = BOOT1_Pin;
 8008716:	2304      	movs	r3, #4
 8008718:	61fb      	str	r3, [r7, #28]
  GPIO_InitStruct.Mode = GPIO_MODE_INPUT;
 800871a:	2300      	movs	r3, #0
 800871c:	623b      	str	r3, [r7, #32]
  GPIO_InitStruct.Pull = GPIO_NOPULL;
 800871e:	2300      	movs	r3, #0
 8008720:	627b      	str	r3, [r7, #36]	; 0x24
  HAL_GPIO_Init(BOOT1_GPIO_Port, &GPIO_InitStruct);
 8008722:	f107 031c 	add.w	r3, r7, #28
 8008726:	4619      	mov	r1, r3
 8008728:	481c      	ldr	r0, [pc, #112]	; (800879c <MX_GPIO_Init+0x1b4>)
 800872a:	f000 fa49 	bl	8008bc0 <HAL_GPIO_Init>

  /*Configure GPIO pins : LD4_Pin LD3_Pin LD5_Pin LD6_Pin
                           Audio_RST_Pin */
  GPIO_InitStruct.Pin = LD4_Pin|LD3_Pin|LD5_Pin|LD6_Pin
 800872e:	f24f 0310 	movw	r3, #61456	; 0xf010
 8008732:	61fb      	str	r3, [r7, #28]
                          |Audio_RST_Pin;
  GPIO_InitStruct.Mode = GPIO_MODE_OUTPUT_PP;
 8008734:	2301      	movs	r3, #1
 8008736:	623b      	str	r3, [r7, #32]
  GPIO_InitStruct.Pull = GPIO_NOPULL;
 8008738:	2300      	movs	r3, #0
 800873a:	627b      	str	r3, [r7, #36]	; 0x24
  GPIO_InitStruct.Speed = GPIO_SPEED_FREQ_LOW;
 800873c:	2300      	movs	r3, #0
 800873e:	62bb      	str	r3, [r7, #40]	; 0x28
  HAL_GPIO_Init(GPIOD, &GPIO_InitStruct);
 8008740:	f107 031c 	add.w	r3, r7, #28
 8008744:	4619      	mov	r1, r3
 8008746:	4812      	ldr	r0, [pc, #72]	; (8008790 <MX_GPIO_Init+0x1a8>)
 8008748:	f000 fa3a 	bl	8008bc0 <HAL_GPIO_Init>

  /*Configure GPIO pin : OTG_FS_OverCurrent_Pin */
  GPIO_InitStruct.Pin = OTG_FS_OverCurrent_Pin;
 800874c:	2320      	movs	r3, #32
 800874e:	61fb      	str	r3, [r7, #28]
  GPIO_InitStruct.Mode = GPIO_MODE_INPUT;
 8008750:	2300      	movs	r3, #0
 8008752:	623b      	str	r3, [r7, #32]
  GPIO_InitStruct.Pull = GPIO_NOPULL;
 8008754:	2300      	movs	r3, #0
 8008756:	627b      	str	r3, [r7, #36]	; 0x24
  HAL_GPIO_Init(OTG_FS_OverCurrent_GPIO_Port, &GPIO_InitStruct);
 8008758:	f107 031c 	add.w	r3, r7, #28
 800875c:	4619      	mov	r1, r3
 800875e:	480c      	ldr	r0, [pc, #48]	; (8008790 <MX_GPIO_Init+0x1a8>)
 8008760:	f000 fa2e 	bl	8008bc0 <HAL_GPIO_Init>

  /*Configure GPIO pin : MEMS_INT2_Pin */
  GPIO_InitStruct.Pin = MEMS_INT2_Pin;
 8008764:	2302      	movs	r3, #2
 8008766:	61fb      	str	r3, [r7, #28]
  GPIO_InitStruct.Mode = GPIO_MODE_EVT_RISING;
 8008768:	4b0a      	ldr	r3, [pc, #40]	; (8008794 <MX_GPIO_Init+0x1ac>)
 800876a:	623b      	str	r3, [r7, #32]
  GPIO_InitStruct.Pull = GPIO_NOPULL;
 800876c:	2300      	movs	r3, #0
 800876e:	627b      	str	r3, [r7, #36]	; 0x24
  HAL_GPIO_Init(MEMS_INT2_GPIO_Port, &GPIO_InitStruct);
 8008770:	f107 031c 	add.w	r3, r7, #28
 8008774:	4619      	mov	r1, r3
 8008776:	4804      	ldr	r0, [pc, #16]	; (8008788 <MX_GPIO_Init+0x1a0>)
 8008778:	f000 fa22 	bl	8008bc0 <HAL_GPIO_Init>

}
 800877c:	bf00      	nop
 800877e:	3730      	adds	r7, #48	; 0x30
 8008780:	46bd      	mov	sp, r7
 8008782:	bd80      	pop	{r7, pc}
 8008784:	40023800 	.word	0x40023800
 8008788:	40021000 	.word	0x40021000
 800878c:	40020800 	.word	0x40020800
 8008790:	40020c00 	.word	0x40020c00
 8008794:	10120000 	.word	0x10120000
 8008798:	40020000 	.word	0x40020000
 800879c:	40020400 	.word	0x40020400

080087a0 <Error_Handler>:
/**
  * @brief  This function is executed in case of error occurrence.
  * @retval None
  */
void Error_Handler(void)
{
 80087a0:	b480      	push	{r7}
 80087a2:	af00      	add	r7, sp, #0
  \details Disables IRQ interrupts by setting the I-bit in the CPSR.
           Can only be executed in Privileged modes.
 */
__STATIC_FORCEINLINE void __disable_irq(void)
{
  __ASM volatile ("cpsid i" : : : "memory");
 80087a4:	b672      	cpsid	i
  /* USER CODE BEGIN Error_Handler_Debug */
  /* User can add his own implementation to report the HAL error return state */
  __disable_irq();
  while (1)
 80087a6:	e7fe      	b.n	80087a6 <Error_Handler+0x6>

080087a8 <HAL_MspInit>:
/* USER CODE END 0 */
/**
  * Initializes the Global MSP.
  */
void HAL_MspInit(void)
{
 80087a8:	b580      	push	{r7, lr}
 80087aa:	b082      	sub	sp, #8
 80087ac:	af00      	add	r7, sp, #0
  /* USER CODE BEGIN MspInit 0 */

  /* USER CODE END MspInit 0 */

  __HAL_RCC_SYSCFG_CLK_ENABLE();
 80087ae:	2300      	movs	r3, #0
 80087b0:	607b      	str	r3, [r7, #4]
 80087b2:	4b10      	ldr	r3, [pc, #64]	; (80087f4 <HAL_MspInit+0x4c>)
 80087b4:	6c5b      	ldr	r3, [r3, #68]	; 0x44
 80087b6:	4a0f      	ldr	r2, [pc, #60]	; (80087f4 <HAL_MspInit+0x4c>)
 80087b8:	f443 4380 	orr.w	r3, r3, #16384	; 0x4000
 80087bc:	6453      	str	r3, [r2, #68]	; 0x44
 80087be:	4b0d      	ldr	r3, [pc, #52]	; (80087f4 <HAL_MspInit+0x4c>)
 80087c0:	6c5b      	ldr	r3, [r3, #68]	; 0x44
 80087c2:	f403 4380 	and.w	r3, r3, #16384	; 0x4000
 80087c6:	607b      	str	r3, [r7, #4]
 80087c8:	687b      	ldr	r3, [r7, #4]
  __HAL_RCC_PWR_CLK_ENABLE();
 80087ca:	2300      	movs	r3, #0
 80087cc:	603b      	str	r3, [r7, #0]
 80087ce:	4b09      	ldr	r3, [pc, #36]	; (80087f4 <HAL_MspInit+0x4c>)
 80087d0:	6c1b      	ldr	r3, [r3, #64]	; 0x40
 80087d2:	4a08      	ldr	r2, [pc, #32]	; (80087f4 <HAL_MspInit+0x4c>)
 80087d4:	f043 5380 	orr.w	r3, r3, #268435456	; 0x10000000
 80087d8:	6413      	str	r3, [r2, #64]	; 0x40
 80087da:	4b06      	ldr	r3, [pc, #24]	; (80087f4 <HAL_MspInit+0x4c>)
 80087dc:	6c1b      	ldr	r3, [r3, #64]	; 0x40
 80087de:	f003 5380 	and.w	r3, r3, #268435456	; 0x10000000
 80087e2:	603b      	str	r3, [r7, #0]
 80087e4:	683b      	ldr	r3, [r7, #0]

  HAL_NVIC_SetPriorityGrouping(NVIC_PRIORITYGROUP_0);
 80087e6:	2007      	movs	r0, #7
 80087e8:	f000 f9b6 	bl	8008b58 <HAL_NVIC_SetPriorityGrouping>
  /* System interrupt init*/

  /* USER CODE BEGIN MspInit 1 */

  /* USER CODE END MspInit 1 */
}
 80087ec:	bf00      	nop
 80087ee:	3708      	adds	r7, #8
 80087f0:	46bd      	mov	sp, r7
 80087f2:	bd80      	pop	{r7, pc}
 80087f4:	40023800 	.word	0x40023800

080087f8 <NMI_Handler>:
/******************************************************************************/
/**
  * @brief This function handles Non maskable interrupt.
  */
void NMI_Handler(void)
{
 80087f8:	b480      	push	{r7}
 80087fa:	af00      	add	r7, sp, #0
  /* USER CODE BEGIN NonMaskableInt_IRQn 0 */

  /* USER CODE END NonMaskableInt_IRQn 0 */
  /* USER CODE BEGIN NonMaskableInt_IRQn 1 */
  while (1)
 80087fc:	e7fe      	b.n	80087fc <NMI_Handler+0x4>

080087fe <HardFault_Handler>:

/**
  * @brief This function handles Hard fault interrupt.
  */
void HardFault_Handler(void)
{
 80087fe:	b480      	push	{r7}
 8008800:	af00      	add	r7, sp, #0
  /* USER CODE BEGIN HardFault_IRQn 0 */

  /* USER CODE END HardFault_IRQn 0 */
  while (1)
 8008802:	e7fe      	b.n	8008802 <HardFault_Handler+0x4>

08008804 <MemManage_Handler>:

/**
  * @brief This function handles Memory management fault.
  */
void MemManage_Handler(void)
{
 8008804:	b480      	push	{r7}
 8008806:	af00      	add	r7, sp, #0
  /* USER CODE BEGIN MemoryManagement_IRQn 0 */

  /* USER CODE END MemoryManagement_IRQn 0 */
  while (1)
 8008808:	e7fe      	b.n	8008808 <MemManage_Handler+0x4>

0800880a <BusFault_Handler>:

/**
  * @brief This function handles Pre-fetch fault, memory access fault.
  */
void BusFault_Handler(void)
{
 800880a:	b480      	push	{r7}
 800880c:	af00      	add	r7, sp, #0
  /* USER CODE BEGIN BusFault_IRQn 0 */

  /* USER CODE END BusFault_IRQn 0 */
  while (1)
 800880e:	e7fe      	b.n	800880e <BusFault_Handler+0x4>

08008810 <UsageFault_Handler>:

/**
  * @brief This function handles Undefined instruction or illegal state.
  */
void UsageFault_Handler(void)
{
 8008810:	b480      	push	{r7}
 8008812:	af00      	add	r7, sp, #0
  /* USER CODE BEGIN UsageFault_IRQn 0 */

  /* USER CODE END UsageFault_IRQn 0 */
  while (1)
 8008814:	e7fe      	b.n	8008814 <UsageFault_Handler+0x4>

08008816 <SVC_Handler>:

/**
  * @brief This function handles System service call via SWI instruction.
  */
void SVC_Handler(void)
{
 8008816:	b480      	push	{r7}
 8008818:	af00      	add	r7, sp, #0

  /* USER CODE END SVCall_IRQn 0 */
  /* USER CODE BEGIN SVCall_IRQn 1 */

  /* USER CODE END SVCall_IRQn 1 */
}
 800881a:	bf00      	nop
 800881c:	46bd      	mov	sp, r7
 800881e:	f85d 7b04 	ldr.w	r7, [sp], #4
 8008822:	4770      	bx	lr

08008824 <DebugMon_Handler>:

/**
  * @brief This function handles Debug monitor.
  */
void DebugMon_Handler(void)
{
 8008824:	b480      	push	{r7}
 8008826:	af00      	add	r7, sp, #0

  /* USER CODE END DebugMonitor_IRQn 0 */
  /* USER CODE BEGIN DebugMonitor_IRQn 1 */

  /* USER CODE END DebugMonitor_IRQn 1 */
}
 8008828:	bf00      	nop
 800882a:	46bd      	mov	sp, r7
 800882c:	f85d 7b04 	ldr.w	r7, [sp], #4
 8008830:	4770      	bx	lr

08008832 <PendSV_Handler>:

/**
  * @brief This function handles Pendable request for system service.
  */
void PendSV_Handler(void)
{
 8008832:	b480      	push	{r7}
 8008834:	af00      	add	r7, sp, #0

  /* USER CODE END PendSV_IRQn 0 */
  /* USER CODE BEGIN PendSV_IRQn 1 */

  /* USER CODE END PendSV_IRQn 1 */
}
 8008836:	bf00      	nop
 8008838:	46bd      	mov	sp, r7
 800883a:	f85d 7b04 	ldr.w	r7, [sp], #4
 800883e:	4770      	bx	lr

08008840 <SysTick_Handler>:

/**
  * @brief This function handles System tick timer.
  */
void SysTick_Handler(void)
{
 8008840:	b580      	push	{r7, lr}
 8008842:	af00      	add	r7, sp, #0
  /* USER CODE BEGIN SysTick_IRQn 0 */

  /* USER CODE END SysTick_IRQn 0 */
  HAL_IncTick();
 8008844:	f000 f894 	bl	8008970 <HAL_IncTick>
  /* USER CODE BEGIN SysTick_IRQn 1 */

  /* USER CODE END SysTick_IRQn 1 */
}
 8008848:	bf00      	nop
 800884a:	bd80      	pop	{r7, pc}

0800884c <SystemInit>:
  *         configuration.
  * @param  None
  * @retval None
  */
void SystemInit(void)
{
 800884c:	b480      	push	{r7}
 800884e:	af00      	add	r7, sp, #0
  /* FPU settings ------------------------------------------------------------*/
  #if (__FPU_PRESENT == 1) && (__FPU_USED == 1)
    SCB->CPACR |= ((3UL << 10*2)|(3UL << 11*2));  /* set CP10 and CP11 Full Access */
 8008850:	4b07      	ldr	r3, [pc, #28]	; (8008870 <SystemInit+0x24>)
 8008852:	f8d3 3088 	ldr.w	r3, [r3, #136]	; 0x88
 8008856:	4a06      	ldr	r2, [pc, #24]	; (8008870 <SystemInit+0x24>)
 8008858:	f443 0370 	orr.w	r3, r3, #15728640	; 0xf00000
 800885c:	f8c2 3088 	str.w	r3, [r2, #136]	; 0x88

  /* Configure the Vector Table location add offset address ------------------*/
#ifdef VECT_TAB_SRAM
  SCB->VTOR = SRAM_BASE | VECT_TAB_OFFSET; /* Vector Table Relocation in Internal SRAM */
#else
  SCB->VTOR = FLASH_BASE | VECT_TAB_OFFSET; /* Vector Table Relocation in Internal FLASH */
 8008860:	4b03      	ldr	r3, [pc, #12]	; (8008870 <SystemInit+0x24>)
 8008862:	4a04      	ldr	r2, [pc, #16]	; (8008874 <SystemInit+0x28>)
 8008864:	609a      	str	r2, [r3, #8]
#endif
}
 8008866:	bf00      	nop
 8008868:	46bd      	mov	sp, r7
 800886a:	f85d 7b04 	ldr.w	r7, [sp], #4
 800886e:	4770      	bx	lr
 8008870:	e000ed00 	.word	0xe000ed00
 8008874:	08008000 	.word	0x08008000

08008878 <Reset_Handler>:

    .section  .text.Reset_Handler
  .weak  Reset_Handler
  .type  Reset_Handler, %function
Reset_Handler:  
  ldr   sp, =_estack     /* set stack pointer */
 8008878:	f8df d034 	ldr.w	sp, [pc, #52]	; 80088b0 <LoopFillZerobss+0x14>

/* Copy the data segment initializers from flash to SRAM */  
  movs  r1, #0
 800887c:	2100      	movs	r1, #0
  b  LoopCopyDataInit
 800887e:	e003      	b.n	8008888 <LoopCopyDataInit>

08008880 <CopyDataInit>:

CopyDataInit:
  ldr  r3, =_sidata
 8008880:	4b0c      	ldr	r3, [pc, #48]	; (80088b4 <LoopFillZerobss+0x18>)
  ldr  r3, [r3, r1]
 8008882:	585b      	ldr	r3, [r3, r1]
  str  r3, [r0, r1]
 8008884:	5043      	str	r3, [r0, r1]
  adds  r1, r1, #4
 8008886:	3104      	adds	r1, #4

08008888 <LoopCopyDataInit>:
    
LoopCopyDataInit:
  ldr  r0, =_sdata
 8008888:	480b      	ldr	r0, [pc, #44]	; (80088b8 <LoopFillZerobss+0x1c>)
  ldr  r3, =_edata
 800888a:	4b0c      	ldr	r3, [pc, #48]	; (80088bc <LoopFillZerobss+0x20>)
  adds  r2, r0, r1
 800888c:	1842      	adds	r2, r0, r1
  cmp  r2, r3
 800888e:	429a      	cmp	r2, r3
  bcc  CopyDataInit
 8008890:	d3f6      	bcc.n	8008880 <CopyDataInit>
  ldr  r2, =_sbss
 8008892:	4a0b      	ldr	r2, [pc, #44]	; (80088c0 <LoopFillZerobss+0x24>)
  b  LoopFillZerobss
 8008894:	e002      	b.n	800889c <LoopFillZerobss>

08008896 <FillZerobss>:
/* Zero fill the bss segment. */  
FillZerobss:
  movs  r3, #0
 8008896:	2300      	movs	r3, #0
  str  r3, [r2], #4
 8008898:	f842 3b04 	str.w	r3, [r2], #4

0800889c <LoopFillZerobss>:
    
LoopFillZerobss:
  ldr  r3, = _ebss
 800889c:	4b09      	ldr	r3, [pc, #36]	; (80088c4 <LoopFillZerobss+0x28>)
  cmp  r2, r3
 800889e:	429a      	cmp	r2, r3
  bcc  FillZerobss
 80088a0:	d3f9      	bcc.n	8008896 <FillZerobss>

/* Call the clock system intitialization function.*/
  bl  SystemInit   
 80088a2:	f7ff ffd3 	bl	800884c <SystemInit>
/* Call static constructors */
    bl __libc_init_array
 80088a6:	f000 ff87 	bl	80097b8 <__libc_init_array>
/* Call the application's entry point.*/
  bl  main
 80088aa:	f7ff fe0d 	bl	80084c8 <main>
  bx  lr    
 80088ae:	4770      	bx	lr
  ldr   sp, =_estack     /* set stack pointer */
 80088b0:	20020000 	.word	0x20020000
  ldr  r3, =_sidata
 80088b4:	08009848 	.word	0x08009848
  ldr  r0, =_sdata
 80088b8:	20000000 	.word	0x20000000
  ldr  r3, =_edata
 80088bc:	2000000c 	.word	0x2000000c
  ldr  r2, =_sbss
 80088c0:	2000000c 	.word	0x2000000c
  ldr  r3, = _ebss
 80088c4:	2000002c 	.word	0x2000002c

080088c8 <ADC_IRQHandler>:
 * @retval None       
*/
    .section  .text.Default_Handler,"ax",%progbits
Default_Handler:
Infinite_Loop:
  b  Infinite_Loop
 80088c8:	e7fe      	b.n	80088c8 <ADC_IRQHandler>
	...

080088cc <HAL_Init>:
  *         need to ensure that the SysTick time base is always set to 1 millisecond
  *         to have correct HAL operation.
  * @retval HAL status
  */
HAL_StatusTypeDef HAL_Init(void)
{
 80088cc:	b580      	push	{r7, lr}
 80088ce:	af00      	add	r7, sp, #0
  /* Configure Flash prefetch, Instruction cache, Data cache */ 
#if (INSTRUCTION_CACHE_ENABLE != 0U)
  __HAL_FLASH_INSTRUCTION_CACHE_ENABLE();
 80088d0:	4b0e      	ldr	r3, [pc, #56]	; (800890c <HAL_Init+0x40>)
 80088d2:	681b      	ldr	r3, [r3, #0]
 80088d4:	4a0d      	ldr	r2, [pc, #52]	; (800890c <HAL_Init+0x40>)
 80088d6:	f443 7300 	orr.w	r3, r3, #512	; 0x200
 80088da:	6013      	str	r3, [r2, #0]
#endif /* INSTRUCTION_CACHE_ENABLE */

#if (DATA_CACHE_ENABLE != 0U)
  __HAL_FLASH_DATA_CACHE_ENABLE();
 80088dc:	4b0b      	ldr	r3, [pc, #44]	; (800890c <HAL_Init+0x40>)
 80088de:	681b      	ldr	r3, [r3, #0]
 80088e0:	4a0a      	ldr	r2, [pc, #40]	; (800890c <HAL_Init+0x40>)
 80088e2:	f443 6380 	orr.w	r3, r3, #1024	; 0x400
 80088e6:	6013      	str	r3, [r2, #0]
#endif /* DATA_CACHE_ENABLE */

#if (PREFETCH_ENABLE != 0U)
  __HAL_FLASH_PREFETCH_BUFFER_ENABLE();
 80088e8:	4b08      	ldr	r3, [pc, #32]	; (800890c <HAL_Init+0x40>)
 80088ea:	681b      	ldr	r3, [r3, #0]
 80088ec:	4a07      	ldr	r2, [pc, #28]	; (800890c <HAL_Init+0x40>)
 80088ee:	f443 7380 	orr.w	r3, r3, #256	; 0x100
 80088f2:	6013      	str	r3, [r2, #0]
#endif /* PREFETCH_ENABLE */

  /* Set Interrupt Group Priority */
  HAL_NVIC_SetPriorityGrouping(NVIC_PRIORITYGROUP_4);
 80088f4:	2003      	movs	r0, #3
 80088f6:	f000 f92f 	bl	8008b58 <HAL_NVIC_SetPriorityGrouping>

  /* Use systick as time base source and configure 1ms tick (default clock after Reset is HSI) */
  HAL_InitTick(TICK_INT_PRIORITY);
 80088fa:	2000      	movs	r0, #0
 80088fc:	f000 f808 	bl	8008910 <HAL_InitTick>

  /* Init the low level hardware */
  HAL_MspInit();
 8008900:	f7ff ff52 	bl	80087a8 <HAL_MspInit>

  /* Return function status */
  return HAL_OK;
 8008904:	2300      	movs	r3, #0
}
 8008906:	4618      	mov	r0, r3
 8008908:	bd80      	pop	{r7, pc}
 800890a:	bf00      	nop
 800890c:	40023c00 	.word	0x40023c00

08008910 <HAL_InitTick>:
  *       implementation  in user file.
  * @param TickPriority Tick interrupt priority.
  * @retval HAL status
  */
__weak HAL_StatusTypeDef HAL_InitTick(uint32_t TickPriority)
{
 8008910:	b580      	push	{r7, lr}
 8008912:	b082      	sub	sp, #8
 8008914:	af00      	add	r7, sp, #0
 8008916:	6078      	str	r0, [r7, #4]
  /* Configure the SysTick to have interrupt in 1ms time basis*/
  if (HAL_SYSTICK_Config(SystemCoreClock / (1000U / uwTickFreq)) > 0U)
 8008918:	4b12      	ldr	r3, [pc, #72]	; (8008964 <HAL_InitTick+0x54>)
 800891a:	681a      	ldr	r2, [r3, #0]
 800891c:	4b12      	ldr	r3, [pc, #72]	; (8008968 <HAL_InitTick+0x58>)
 800891e:	781b      	ldrb	r3, [r3, #0]
 8008920:	4619      	mov	r1, r3
 8008922:	f44f 737a 	mov.w	r3, #1000	; 0x3e8
 8008926:	fbb3 f3f1 	udiv	r3, r3, r1
 800892a:	fbb2 f3f3 	udiv	r3, r2, r3
 800892e:	4618      	mov	r0, r3
 8008930:	f000 f939 	bl	8008ba6 <HAL_SYSTICK_Config>
 8008934:	4603      	mov	r3, r0
 8008936:	2b00      	cmp	r3, #0
 8008938:	d001      	beq.n	800893e <HAL_InitTick+0x2e>
  {
    return HAL_ERROR;
 800893a:	2301      	movs	r3, #1
 800893c:	e00e      	b.n	800895c <HAL_InitTick+0x4c>
  }

  /* Configure the SysTick IRQ priority */
  if (TickPriority < (1UL << __NVIC_PRIO_BITS))
 800893e:	687b      	ldr	r3, [r7, #4]
 8008940:	2b0f      	cmp	r3, #15
 8008942:	d80a      	bhi.n	800895a <HAL_InitTick+0x4a>
  {
    HAL_NVIC_SetPriority(SysTick_IRQn, TickPriority, 0U);
 8008944:	2200      	movs	r2, #0
 8008946:	6879      	ldr	r1, [r7, #4]
 8008948:	f04f 30ff 	mov.w	r0, #4294967295
 800894c:	f000 f90f 	bl	8008b6e <HAL_NVIC_SetPriority>
    uwTickPrio = TickPriority;
 8008950:	4a06      	ldr	r2, [pc, #24]	; (800896c <HAL_InitTick+0x5c>)
 8008952:	687b      	ldr	r3, [r7, #4]
 8008954:	6013      	str	r3, [r2, #0]
  {
    return HAL_ERROR;
  }

  /* Return function status */
  return HAL_OK;
 8008956:	2300      	movs	r3, #0
 8008958:	e000      	b.n	800895c <HAL_InitTick+0x4c>
    return HAL_ERROR;
 800895a:	2301      	movs	r3, #1
}
 800895c:	4618      	mov	r0, r3
 800895e:	3708      	adds	r7, #8
 8008960:	46bd      	mov	sp, r7
 8008962:	bd80      	pop	{r7, pc}
 8008964:	20000000 	.word	0x20000000
 8008968:	20000008 	.word	0x20000008
 800896c:	20000004 	.word	0x20000004

08008970 <HAL_IncTick>:
 * @note This function is declared as __weak to be overwritten in case of other 
  *      implementations in user file.
  * @retval None
  */
__weak void HAL_IncTick(void)
{
 8008970:	b480      	push	{r7}
 8008972:	af00      	add	r7, sp, #0
  uwTick += uwTickFreq;
 8008974:	4b06      	ldr	r3, [pc, #24]	; (8008990 <HAL_IncTick+0x20>)
 8008976:	781b      	ldrb	r3, [r3, #0]
 8008978:	461a      	mov	r2, r3
 800897a:	4b06      	ldr	r3, [pc, #24]	; (8008994 <HAL_IncTick+0x24>)
 800897c:	681b      	ldr	r3, [r3, #0]
 800897e:	4413      	add	r3, r2
 8008980:	4a04      	ldr	r2, [pc, #16]	; (8008994 <HAL_IncTick+0x24>)
 8008982:	6013      	str	r3, [r2, #0]
}
 8008984:	bf00      	nop
 8008986:	46bd      	mov	sp, r7
 8008988:	f85d 7b04 	ldr.w	r7, [sp], #4
 800898c:	4770      	bx	lr
 800898e:	bf00      	nop
 8008990:	20000008 	.word	0x20000008
 8008994:	20000028 	.word	0x20000028

08008998 <HAL_GetTick>:
  * @note This function is declared as __weak to be overwritten in case of other 
  *       implementations in user file.
  * @retval tick value
  */
__weak uint32_t HAL_GetTick(void)
{
 8008998:	b480      	push	{r7}
 800899a:	af00      	add	r7, sp, #0
  return uwTick;
 800899c:	4b03      	ldr	r3, [pc, #12]	; (80089ac <HAL_GetTick+0x14>)
 800899e:	681b      	ldr	r3, [r3, #0]
}
 80089a0:	4618      	mov	r0, r3
 80089a2:	46bd      	mov	sp, r7
 80089a4:	f85d 7b04 	ldr.w	r7, [sp], #4
 80089a8:	4770      	bx	lr
 80089aa:	bf00      	nop
 80089ac:	20000028 	.word	0x20000028

080089b0 <HAL_Delay>:
  *       implementations in user file.
  * @param Delay specifies the delay time length, in milliseconds.
  * @retval None
  */
__weak void HAL_Delay(uint32_t Delay)
{
 80089b0:	b580      	push	{r7, lr}
 80089b2:	b084      	sub	sp, #16
 80089b4:	af00      	add	r7, sp, #0
 80089b6:	6078      	str	r0, [r7, #4]
  uint32_t tickstart = HAL_GetTick();
 80089b8:	f7ff ffee 	bl	8008998 <HAL_GetTick>
 80089bc:	60b8      	str	r0, [r7, #8]
  uint32_t wait = Delay;
 80089be:	687b      	ldr	r3, [r7, #4]
 80089c0:	60fb      	str	r3, [r7, #12]

  /* Add a freq to guarantee minimum wait */
  if (wait < HAL_MAX_DELAY)
 80089c2:	68fb      	ldr	r3, [r7, #12]
 80089c4:	f1b3 3fff 	cmp.w	r3, #4294967295
 80089c8:	d005      	beq.n	80089d6 <HAL_Delay+0x26>
  {
    wait += (uint32_t)(uwTickFreq);
 80089ca:	4b09      	ldr	r3, [pc, #36]	; (80089f0 <HAL_Delay+0x40>)
 80089cc:	781b      	ldrb	r3, [r3, #0]
 80089ce:	461a      	mov	r2, r3
 80089d0:	68fb      	ldr	r3, [r7, #12]
 80089d2:	4413      	add	r3, r2
 80089d4:	60fb      	str	r3, [r7, #12]
  }

  while((HAL_GetTick() - tickstart) < wait)
 80089d6:	bf00      	nop
 80089d8:	f7ff ffde 	bl	8008998 <HAL_GetTick>
 80089dc:	4602      	mov	r2, r0
 80089de:	68bb      	ldr	r3, [r7, #8]
 80089e0:	1ad3      	subs	r3, r2, r3
 80089e2:	68fa      	ldr	r2, [r7, #12]
 80089e4:	429a      	cmp	r2, r3
 80089e6:	d8f7      	bhi.n	80089d8 <HAL_Delay+0x28>
  {
  }
}
 80089e8:	bf00      	nop
 80089ea:	3710      	adds	r7, #16
 80089ec:	46bd      	mov	sp, r7
 80089ee:	bd80      	pop	{r7, pc}
 80089f0:	20000008 	.word	0x20000008

080089f4 <__NVIC_SetPriorityGrouping>:
           In case of a conflict between priority grouping and available
           priority bits (__NVIC_PRIO_BITS), the smallest possible priority group is set.
  \param [in]      PriorityGroup  Priority grouping field.
 */
__STATIC_INLINE void __NVIC_SetPriorityGrouping(uint32_t PriorityGroup)
{
 80089f4:	b480      	push	{r7}
 80089f6:	b085      	sub	sp, #20
 80089f8:	af00      	add	r7, sp, #0
 80089fa:	6078      	str	r0, [r7, #4]
  uint32_t reg_value;
  uint32_t PriorityGroupTmp = (PriorityGroup & (uint32_t)0x07UL);             /* only values 0..7 are used          */
 80089fc:	687b      	ldr	r3, [r7, #4]
 80089fe:	f003 0307 	and.w	r3, r3, #7
 8008a02:	60fb      	str	r3, [r7, #12]

  reg_value  =  SCB->AIRCR;                                                   /* read old register configuration    */
 8008a04:	4b0c      	ldr	r3, [pc, #48]	; (8008a38 <__NVIC_SetPriorityGrouping+0x44>)
 8008a06:	68db      	ldr	r3, [r3, #12]
 8008a08:	60bb      	str	r3, [r7, #8]
  reg_value &= ~((uint32_t)(SCB_AIRCR_VECTKEY_Msk | SCB_AIRCR_PRIGROUP_Msk)); /* clear bits to change               */
 8008a0a:	68ba      	ldr	r2, [r7, #8]
 8008a0c:	f64f 03ff 	movw	r3, #63743	; 0xf8ff
 8008a10:	4013      	ands	r3, r2
 8008a12:	60bb      	str	r3, [r7, #8]
  reg_value  =  (reg_value                                   |
                ((uint32_t)0x5FAUL << SCB_AIRCR_VECTKEY_Pos) |
                (PriorityGroupTmp << SCB_AIRCR_PRIGROUP_Pos)  );              /* Insert write key and priority group */
 8008a14:	68fb      	ldr	r3, [r7, #12]
 8008a16:	021a      	lsls	r2, r3, #8
                ((uint32_t)0x5FAUL << SCB_AIRCR_VECTKEY_Pos) |
 8008a18:	68bb      	ldr	r3, [r7, #8]
 8008a1a:	4313      	orrs	r3, r2
  reg_value  =  (reg_value                                   |
 8008a1c:	f043 63bf 	orr.w	r3, r3, #100139008	; 0x5f80000
 8008a20:	f443 3300 	orr.w	r3, r3, #131072	; 0x20000
 8008a24:	60bb      	str	r3, [r7, #8]
  SCB->AIRCR =  reg_value;
 8008a26:	4a04      	ldr	r2, [pc, #16]	; (8008a38 <__NVIC_SetPriorityGrouping+0x44>)
 8008a28:	68bb      	ldr	r3, [r7, #8]
 8008a2a:	60d3      	str	r3, [r2, #12]
}
 8008a2c:	bf00      	nop
 8008a2e:	3714      	adds	r7, #20
 8008a30:	46bd      	mov	sp, r7
 8008a32:	f85d 7b04 	ldr.w	r7, [sp], #4
 8008a36:	4770      	bx	lr
 8008a38:	e000ed00 	.word	0xe000ed00

08008a3c <__NVIC_GetPriorityGrouping>:
  \brief   Get Priority Grouping
  \details Reads the priority grouping field from the NVIC Interrupt Controller.
  \return                Priority grouping field (SCB->AIRCR [10:8] PRIGROUP field).
 */
__STATIC_INLINE uint32_t __NVIC_GetPriorityGrouping(void)
{
 8008a3c:	b480      	push	{r7}
 8008a3e:	af00      	add	r7, sp, #0
  return ((uint32_t)((SCB->AIRCR & SCB_AIRCR_PRIGROUP_Msk) >> SCB_AIRCR_PRIGROUP_Pos));
 8008a40:	4b04      	ldr	r3, [pc, #16]	; (8008a54 <__NVIC_GetPriorityGrouping+0x18>)
 8008a42:	68db      	ldr	r3, [r3, #12]
 8008a44:	0a1b      	lsrs	r3, r3, #8
 8008a46:	f003 0307 	and.w	r3, r3, #7
}
 8008a4a:	4618      	mov	r0, r3
 8008a4c:	46bd      	mov	sp, r7
 8008a4e:	f85d 7b04 	ldr.w	r7, [sp], #4
 8008a52:	4770      	bx	lr
 8008a54:	e000ed00 	.word	0xe000ed00

08008a58 <__NVIC_SetPriority>:
  \param [in]      IRQn  Interrupt number.
  \param [in]  priority  Priority to set.
  \note    The priority cannot be set for every processor exception.
 */
__STATIC_INLINE void __NVIC_SetPriority(IRQn_Type IRQn, uint32_t priority)
{
 8008a58:	b480      	push	{r7}
 8008a5a:	b083      	sub	sp, #12
 8008a5c:	af00      	add	r7, sp, #0
 8008a5e:	4603      	mov	r3, r0
 8008a60:	6039      	str	r1, [r7, #0]
 8008a62:	71fb      	strb	r3, [r7, #7]
  if ((int32_t)(IRQn) >= 0)
 8008a64:	f997 3007 	ldrsb.w	r3, [r7, #7]
 8008a68:	2b00      	cmp	r3, #0
 8008a6a:	db0a      	blt.n	8008a82 <__NVIC_SetPriority+0x2a>
  {
    NVIC->IP[((uint32_t)IRQn)]               = (uint8_t)((priority << (8U - __NVIC_PRIO_BITS)) & (uint32_t)0xFFUL);
 8008a6c:	683b      	ldr	r3, [r7, #0]
 8008a6e:	b2da      	uxtb	r2, r3
 8008a70:	490c      	ldr	r1, [pc, #48]	; (8008aa4 <__NVIC_SetPriority+0x4c>)
 8008a72:	f997 3007 	ldrsb.w	r3, [r7, #7]
 8008a76:	0112      	lsls	r2, r2, #4
 8008a78:	b2d2      	uxtb	r2, r2
 8008a7a:	440b      	add	r3, r1
 8008a7c:	f883 2300 	strb.w	r2, [r3, #768]	; 0x300
  }
  else
  {
    SCB->SHP[(((uint32_t)IRQn) & 0xFUL)-4UL] = (uint8_t)((priority << (8U - __NVIC_PRIO_BITS)) & (uint32_t)0xFFUL);
  }
}
 8008a80:	e00a      	b.n	8008a98 <__NVIC_SetPriority+0x40>
    SCB->SHP[(((uint32_t)IRQn) & 0xFUL)-4UL] = (uint8_t)((priority << (8U - __NVIC_PRIO_BITS)) & (uint32_t)0xFFUL);
 8008a82:	683b      	ldr	r3, [r7, #0]
 8008a84:	b2da      	uxtb	r2, r3
 8008a86:	4908      	ldr	r1, [pc, #32]	; (8008aa8 <__NVIC_SetPriority+0x50>)
 8008a88:	79fb      	ldrb	r3, [r7, #7]
 8008a8a:	f003 030f 	and.w	r3, r3, #15
 8008a8e:	3b04      	subs	r3, #4
 8008a90:	0112      	lsls	r2, r2, #4
 8008a92:	b2d2      	uxtb	r2, r2
 8008a94:	440b      	add	r3, r1
 8008a96:	761a      	strb	r2, [r3, #24]
}
 8008a98:	bf00      	nop
 8008a9a:	370c      	adds	r7, #12
 8008a9c:	46bd      	mov	sp, r7
 8008a9e:	f85d 7b04 	ldr.w	r7, [sp], #4
 8008aa2:	4770      	bx	lr
 8008aa4:	e000e100 	.word	0xe000e100
 8008aa8:	e000ed00 	.word	0xe000ed00

08008aac <NVIC_EncodePriority>:
  \param [in]   PreemptPriority  Preemptive priority value (starting from 0).
  \param [in]       SubPriority  Subpriority value (starting from 0).
  \return                        Encoded priority. Value can be used in the function \ref NVIC_SetPriority().
 */
__STATIC_INLINE uint32_t NVIC_EncodePriority (uint32_t PriorityGroup, uint32_t PreemptPriority, uint32_t SubPriority)
{
 8008aac:	b480      	push	{r7}
 8008aae:	b089      	sub	sp, #36	; 0x24
 8008ab0:	af00      	add	r7, sp, #0
 8008ab2:	60f8      	str	r0, [r7, #12]
 8008ab4:	60b9      	str	r1, [r7, #8]
 8008ab6:	607a      	str	r2, [r7, #4]
  uint32_t PriorityGroupTmp = (PriorityGroup & (uint32_t)0x07UL);   /* only values 0..7 are used          */
 8008ab8:	68fb      	ldr	r3, [r7, #12]
 8008aba:	f003 0307 	and.w	r3, r3, #7
 8008abe:	61fb      	str	r3, [r7, #28]
  uint32_t PreemptPriorityBits;
  uint32_t SubPriorityBits;

  PreemptPriorityBits = ((7UL - PriorityGroupTmp) > (uint32_t)(__NVIC_PRIO_BITS)) ? (uint32_t)(__NVIC_PRIO_BITS) : (uint32_t)(7UL - PriorityGroupTmp);
 8008ac0:	69fb      	ldr	r3, [r7, #28]
 8008ac2:	f1c3 0307 	rsb	r3, r3, #7
 8008ac6:	2b04      	cmp	r3, #4
 8008ac8:	bf28      	it	cs
 8008aca:	2304      	movcs	r3, #4
 8008acc:	61bb      	str	r3, [r7, #24]
  SubPriorityBits     = ((PriorityGroupTmp + (uint32_t)(__NVIC_PRIO_BITS)) < (uint32_t)7UL) ? (uint32_t)0UL : (uint32_t)((PriorityGroupTmp - 7UL) + (uint32_t)(__NVIC_PRIO_BITS));
 8008ace:	69fb      	ldr	r3, [r7, #28]
 8008ad0:	3304      	adds	r3, #4
 8008ad2:	2b06      	cmp	r3, #6
 8008ad4:	d902      	bls.n	8008adc <NVIC_EncodePriority+0x30>
 8008ad6:	69fb      	ldr	r3, [r7, #28]
 8008ad8:	3b03      	subs	r3, #3
 8008ada:	e000      	b.n	8008ade <NVIC_EncodePriority+0x32>
 8008adc:	2300      	movs	r3, #0
 8008ade:	617b      	str	r3, [r7, #20]

  return (
           ((PreemptPriority & (uint32_t)((1UL << (PreemptPriorityBits)) - 1UL)) << SubPriorityBits) |
 8008ae0:	f04f 32ff 	mov.w	r2, #4294967295
 8008ae4:	69bb      	ldr	r3, [r7, #24]
 8008ae6:	fa02 f303 	lsl.w	r3, r2, r3
 8008aea:	43da      	mvns	r2, r3
 8008aec:	68bb      	ldr	r3, [r7, #8]
 8008aee:	401a      	ands	r2, r3
 8008af0:	697b      	ldr	r3, [r7, #20]
 8008af2:	409a      	lsls	r2, r3
           ((SubPriority     & (uint32_t)((1UL << (SubPriorityBits    )) - 1UL)))
 8008af4:	f04f 31ff 	mov.w	r1, #4294967295
 8008af8:	697b      	ldr	r3, [r7, #20]
 8008afa:	fa01 f303 	lsl.w	r3, r1, r3
 8008afe:	43d9      	mvns	r1, r3
 8008b00:	687b      	ldr	r3, [r7, #4]
 8008b02:	400b      	ands	r3, r1
           ((PreemptPriority & (uint32_t)((1UL << (PreemptPriorityBits)) - 1UL)) << SubPriorityBits) |
 8008b04:	4313      	orrs	r3, r2
         );
}
 8008b06:	4618      	mov	r0, r3
 8008b08:	3724      	adds	r7, #36	; 0x24
 8008b0a:	46bd      	mov	sp, r7
 8008b0c:	f85d 7b04 	ldr.w	r7, [sp], #4
 8008b10:	4770      	bx	lr
	...

08008b14 <SysTick_Config>:
  \note    When the variable <b>__Vendor_SysTickConfig</b> is set to 1, then the
           function <b>SysTick_Config</b> is not included. In this case, the file <b><i>device</i>.h</b>
           must contain a vendor-specific implementation of this function.
 */
__STATIC_INLINE uint32_t SysTick_Config(uint32_t ticks)
{
 8008b14:	b580      	push	{r7, lr}
 8008b16:	b082      	sub	sp, #8
 8008b18:	af00      	add	r7, sp, #0
 8008b1a:	6078      	str	r0, [r7, #4]
  if ((ticks - 1UL) > SysTick_LOAD_RELOAD_Msk)
 8008b1c:	687b      	ldr	r3, [r7, #4]
 8008b1e:	3b01      	subs	r3, #1
 8008b20:	f1b3 7f80 	cmp.w	r3, #16777216	; 0x1000000
 8008b24:	d301      	bcc.n	8008b2a <SysTick_Config+0x16>
  {
    return (1UL);                                                   /* Reload value impossible */
 8008b26:	2301      	movs	r3, #1
 8008b28:	e00f      	b.n	8008b4a <SysTick_Config+0x36>
  }

  SysTick->LOAD  = (uint32_t)(ticks - 1UL);                         /* set reload register */
 8008b2a:	4a0a      	ldr	r2, [pc, #40]	; (8008b54 <SysTick_Config+0x40>)
 8008b2c:	687b      	ldr	r3, [r7, #4]
 8008b2e:	3b01      	subs	r3, #1
 8008b30:	6053      	str	r3, [r2, #4]
  NVIC_SetPriority (SysTick_IRQn, (1UL << __NVIC_PRIO_BITS) - 1UL); /* set Priority for Systick Interrupt */
 8008b32:	210f      	movs	r1, #15
 8008b34:	f04f 30ff 	mov.w	r0, #4294967295
 8008b38:	f7ff ff8e 	bl	8008a58 <__NVIC_SetPriority>
  SysTick->VAL   = 0UL;                                             /* Load the SysTick Counter Value */
 8008b3c:	4b05      	ldr	r3, [pc, #20]	; (8008b54 <SysTick_Config+0x40>)
 8008b3e:	2200      	movs	r2, #0
 8008b40:	609a      	str	r2, [r3, #8]
  SysTick->CTRL  = SysTick_CTRL_CLKSOURCE_Msk |
 8008b42:	4b04      	ldr	r3, [pc, #16]	; (8008b54 <SysTick_Config+0x40>)
 8008b44:	2207      	movs	r2, #7
 8008b46:	601a      	str	r2, [r3, #0]
                   SysTick_CTRL_TICKINT_Msk   |
                   SysTick_CTRL_ENABLE_Msk;                         /* Enable SysTick IRQ and SysTick Timer */
  return (0UL);                                                     /* Function successful */
 8008b48:	2300      	movs	r3, #0
}
 8008b4a:	4618      	mov	r0, r3
 8008b4c:	3708      	adds	r7, #8
 8008b4e:	46bd      	mov	sp, r7
 8008b50:	bd80      	pop	{r7, pc}
 8008b52:	bf00      	nop
 8008b54:	e000e010 	.word	0xe000e010

08008b58 <HAL_NVIC_SetPriorityGrouping>:
  * @note   When the NVIC_PriorityGroup_0 is selected, IRQ preemption is no more possible. 
  *         The pending IRQ priority will be managed only by the subpriority. 
  * @retval None
  */
void HAL_NVIC_SetPriorityGrouping(uint32_t PriorityGroup)
{
 8008b58:	b580      	push	{r7, lr}
 8008b5a:	b082      	sub	sp, #8
 8008b5c:	af00      	add	r7, sp, #0
 8008b5e:	6078      	str	r0, [r7, #4]
  /* Check the parameters */
  assert_param(IS_NVIC_PRIORITY_GROUP(PriorityGroup));
  
  /* Set the PRIGROUP[10:8] bits according to the PriorityGroup parameter value */
  NVIC_SetPriorityGrouping(PriorityGroup);
 8008b60:	6878      	ldr	r0, [r7, #4]
 8008b62:	f7ff ff47 	bl	80089f4 <__NVIC_SetPriorityGrouping>
}
 8008b66:	bf00      	nop
 8008b68:	3708      	adds	r7, #8
 8008b6a:	46bd      	mov	sp, r7
 8008b6c:	bd80      	pop	{r7, pc}

08008b6e <HAL_NVIC_SetPriority>:
  *         This parameter can be a value between 0 and 15
  *         A lower priority value indicates a higher priority.          
  * @retval None
  */
void HAL_NVIC_SetPriority(IRQn_Type IRQn, uint32_t PreemptPriority, uint32_t SubPriority)
{ 
 8008b6e:	b580      	push	{r7, lr}
 8008b70:	b086      	sub	sp, #24
 8008b72:	af00      	add	r7, sp, #0
 8008b74:	4603      	mov	r3, r0
 8008b76:	60b9      	str	r1, [r7, #8]
 8008b78:	607a      	str	r2, [r7, #4]
 8008b7a:	73fb      	strb	r3, [r7, #15]
  uint32_t prioritygroup = 0x00U;
 8008b7c:	2300      	movs	r3, #0
 8008b7e:	617b      	str	r3, [r7, #20]
  
  /* Check the parameters */
  assert_param(IS_NVIC_SUB_PRIORITY(SubPriority));
  assert_param(IS_NVIC_PREEMPTION_PRIORITY(PreemptPriority));
  
  prioritygroup = NVIC_GetPriorityGrouping();
 8008b80:	f7ff ff5c 	bl	8008a3c <__NVIC_GetPriorityGrouping>
 8008b84:	6178      	str	r0, [r7, #20]
  
  NVIC_SetPriority(IRQn, NVIC_EncodePriority(prioritygroup, PreemptPriority, SubPriority));
 8008b86:	687a      	ldr	r2, [r7, #4]
 8008b88:	68b9      	ldr	r1, [r7, #8]
 8008b8a:	6978      	ldr	r0, [r7, #20]
 8008b8c:	f7ff ff8e 	bl	8008aac <NVIC_EncodePriority>
 8008b90:	4602      	mov	r2, r0
 8008b92:	f997 300f 	ldrsb.w	r3, [r7, #15]
 8008b96:	4611      	mov	r1, r2
 8008b98:	4618      	mov	r0, r3
 8008b9a:	f7ff ff5d 	bl	8008a58 <__NVIC_SetPriority>
}
 8008b9e:	bf00      	nop
 8008ba0:	3718      	adds	r7, #24
 8008ba2:	46bd      	mov	sp, r7
 8008ba4:	bd80      	pop	{r7, pc}

08008ba6 <HAL_SYSTICK_Config>:
  * @param  TicksNumb Specifies the ticks Number of ticks between two interrupts.
  * @retval status:  - 0  Function succeeded.
  *                  - 1  Function failed.
  */
uint32_t HAL_SYSTICK_Config(uint32_t TicksNumb)
{
 8008ba6:	b580      	push	{r7, lr}
 8008ba8:	b082      	sub	sp, #8
 8008baa:	af00      	add	r7, sp, #0
 8008bac:	6078      	str	r0, [r7, #4]
   return SysTick_Config(TicksNumb);
 8008bae:	6878      	ldr	r0, [r7, #4]
 8008bb0:	f7ff ffb0 	bl	8008b14 <SysTick_Config>
 8008bb4:	4603      	mov	r3, r0
}
 8008bb6:	4618      	mov	r0, r3
 8008bb8:	3708      	adds	r7, #8
 8008bba:	46bd      	mov	sp, r7
 8008bbc:	bd80      	pop	{r7, pc}
	...

08008bc0 <HAL_GPIO_Init>:
  * @param  GPIO_Init pointer to a GPIO_InitTypeDef structure that contains
  *         the configuration information for the specified GPIO peripheral.
  * @retval None
  */
void HAL_GPIO_Init(GPIO_TypeDef  *GPIOx, GPIO_InitTypeDef *GPIO_Init)
{
 8008bc0:	b480      	push	{r7}
 8008bc2:	b089      	sub	sp, #36	; 0x24
 8008bc4:	af00      	add	r7, sp, #0
 8008bc6:	6078      	str	r0, [r7, #4]
 8008bc8:	6039      	str	r1, [r7, #0]
  uint32_t position;
  uint32_t ioposition = 0x00U;
 8008bca:	2300      	movs	r3, #0
 8008bcc:	617b      	str	r3, [r7, #20]
  uint32_t iocurrent = 0x00U;
 8008bce:	2300      	movs	r3, #0
 8008bd0:	613b      	str	r3, [r7, #16]
  uint32_t temp = 0x00U;
 8008bd2:	2300      	movs	r3, #0
 8008bd4:	61bb      	str	r3, [r7, #24]
  assert_param(IS_GPIO_PIN(GPIO_Init->Pin));
  assert_param(IS_GPIO_MODE(GPIO_Init->Mode));
  assert_param(IS_GPIO_PULL(GPIO_Init->Pull));

  /* Configure the port pins */
  for(position = 0U; position < GPIO_NUMBER; position++)
 8008bd6:	2300      	movs	r3, #0
 8008bd8:	61fb      	str	r3, [r7, #28]
 8008bda:	e16b      	b.n	8008eb4 <HAL_GPIO_Init+0x2f4>
  {
    /* Get the IO position */
    ioposition = 0x01U << position;
 8008bdc:	2201      	movs	r2, #1
 8008bde:	69fb      	ldr	r3, [r7, #28]
 8008be0:	fa02 f303 	lsl.w	r3, r2, r3
 8008be4:	617b      	str	r3, [r7, #20]
    /* Get the current IO position */
    iocurrent = (uint32_t)(GPIO_Init->Pin) & ioposition;
 8008be6:	683b      	ldr	r3, [r7, #0]
 8008be8:	681b      	ldr	r3, [r3, #0]
 8008bea:	697a      	ldr	r2, [r7, #20]
 8008bec:	4013      	ands	r3, r2
 8008bee:	613b      	str	r3, [r7, #16]

    if(iocurrent == ioposition)
 8008bf0:	693a      	ldr	r2, [r7, #16]
 8008bf2:	697b      	ldr	r3, [r7, #20]
 8008bf4:	429a      	cmp	r2, r3
 8008bf6:	f040 815a 	bne.w	8008eae <HAL_GPIO_Init+0x2ee>
    {
      /*--------------------- GPIO Mode Configuration ------------------------*/
      /* In case of Output or Alternate function mode selection */
      if((GPIO_Init->Mode == GPIO_MODE_OUTPUT_PP) || (GPIO_Init->Mode == GPIO_MODE_AF_PP) ||
 8008bfa:	683b      	ldr	r3, [r7, #0]
 8008bfc:	685b      	ldr	r3, [r3, #4]
 8008bfe:	2b01      	cmp	r3, #1
 8008c00:	d00b      	beq.n	8008c1a <HAL_GPIO_Init+0x5a>
 8008c02:	683b      	ldr	r3, [r7, #0]
 8008c04:	685b      	ldr	r3, [r3, #4]
 8008c06:	2b02      	cmp	r3, #2
 8008c08:	d007      	beq.n	8008c1a <HAL_GPIO_Init+0x5a>
         (GPIO_Init->Mode == GPIO_MODE_OUTPUT_OD) || (GPIO_Init->Mode == GPIO_MODE_AF_OD))
 8008c0a:	683b      	ldr	r3, [r7, #0]
 8008c0c:	685b      	ldr	r3, [r3, #4]
      if((GPIO_Init->Mode == GPIO_MODE_OUTPUT_PP) || (GPIO_Init->Mode == GPIO_MODE_AF_PP) ||
 8008c0e:	2b11      	cmp	r3, #17
 8008c10:	d003      	beq.n	8008c1a <HAL_GPIO_Init+0x5a>
         (GPIO_Init->Mode == GPIO_MODE_OUTPUT_OD) || (GPIO_Init->Mode == GPIO_MODE_AF_OD))
 8008c12:	683b      	ldr	r3, [r7, #0]
 8008c14:	685b      	ldr	r3, [r3, #4]
 8008c16:	2b12      	cmp	r3, #18
 8008c18:	d130      	bne.n	8008c7c <HAL_GPIO_Init+0xbc>
      {
        /* Check the Speed parameter */
        assert_param(IS_GPIO_SPEED(GPIO_Init->Speed));
        /* Configure the IO Speed */
        temp = GPIOx->OSPEEDR; 
 8008c1a:	687b      	ldr	r3, [r7, #4]
 8008c1c:	689b      	ldr	r3, [r3, #8]
 8008c1e:	61bb      	str	r3, [r7, #24]
        temp &= ~(GPIO_OSPEEDER_OSPEEDR0 << (position * 2U));
 8008c20:	69fb      	ldr	r3, [r7, #28]
 8008c22:	005b      	lsls	r3, r3, #1
 8008c24:	2203      	movs	r2, #3
 8008c26:	fa02 f303 	lsl.w	r3, r2, r3
 8008c2a:	43db      	mvns	r3, r3
 8008c2c:	69ba      	ldr	r2, [r7, #24]
 8008c2e:	4013      	ands	r3, r2
 8008c30:	61bb      	str	r3, [r7, #24]
        temp |= (GPIO_Init->Speed << (position * 2U));
 8008c32:	683b      	ldr	r3, [r7, #0]
 8008c34:	68da      	ldr	r2, [r3, #12]
 8008c36:	69fb      	ldr	r3, [r7, #28]
 8008c38:	005b      	lsls	r3, r3, #1
 8008c3a:	fa02 f303 	lsl.w	r3, r2, r3
 8008c3e:	69ba      	ldr	r2, [r7, #24]
 8008c40:	4313      	orrs	r3, r2
 8008c42:	61bb      	str	r3, [r7, #24]
        GPIOx->OSPEEDR = temp;
 8008c44:	687b      	ldr	r3, [r7, #4]
 8008c46:	69ba      	ldr	r2, [r7, #24]
 8008c48:	609a      	str	r2, [r3, #8]

        /* Configure the IO Output Type */
        temp = GPIOx->OTYPER;
 8008c4a:	687b      	ldr	r3, [r7, #4]
 8008c4c:	685b      	ldr	r3, [r3, #4]
 8008c4e:	61bb      	str	r3, [r7, #24]
        temp &= ~(GPIO_OTYPER_OT_0 << position) ;
 8008c50:	2201      	movs	r2, #1
 8008c52:	69fb      	ldr	r3, [r7, #28]
 8008c54:	fa02 f303 	lsl.w	r3, r2, r3
 8008c58:	43db      	mvns	r3, r3
 8008c5a:	69ba      	ldr	r2, [r7, #24]
 8008c5c:	4013      	ands	r3, r2
 8008c5e:	61bb      	str	r3, [r7, #24]
        temp |= (((GPIO_Init->Mode & GPIO_OUTPUT_TYPE) >> 4U) << position);
 8008c60:	683b      	ldr	r3, [r7, #0]
 8008c62:	685b      	ldr	r3, [r3, #4]
 8008c64:	091b      	lsrs	r3, r3, #4
 8008c66:	f003 0201 	and.w	r2, r3, #1
 8008c6a:	69fb      	ldr	r3, [r7, #28]
 8008c6c:	fa02 f303 	lsl.w	r3, r2, r3
 8008c70:	69ba      	ldr	r2, [r7, #24]
 8008c72:	4313      	orrs	r3, r2
 8008c74:	61bb      	str	r3, [r7, #24]
        GPIOx->OTYPER = temp;
 8008c76:	687b      	ldr	r3, [r7, #4]
 8008c78:	69ba      	ldr	r2, [r7, #24]
 8008c7a:	605a      	str	r2, [r3, #4]
       }

      /* Activate the Pull-up or Pull down resistor for the current IO */
      temp = GPIOx->PUPDR;
 8008c7c:	687b      	ldr	r3, [r7, #4]
 8008c7e:	68db      	ldr	r3, [r3, #12]
 8008c80:	61bb      	str	r3, [r7, #24]
      temp &= ~(GPIO_PUPDR_PUPDR0 << (position * 2U));
 8008c82:	69fb      	ldr	r3, [r7, #28]
 8008c84:	005b      	lsls	r3, r3, #1
 8008c86:	2203      	movs	r2, #3
 8008c88:	fa02 f303 	lsl.w	r3, r2, r3
 8008c8c:	43db      	mvns	r3, r3
 8008c8e:	69ba      	ldr	r2, [r7, #24]
 8008c90:	4013      	ands	r3, r2
 8008c92:	61bb      	str	r3, [r7, #24]
      temp |= ((GPIO_Init->Pull) << (position * 2U));
 8008c94:	683b      	ldr	r3, [r7, #0]
 8008c96:	689a      	ldr	r2, [r3, #8]
 8008c98:	69fb      	ldr	r3, [r7, #28]
 8008c9a:	005b      	lsls	r3, r3, #1
 8008c9c:	fa02 f303 	lsl.w	r3, r2, r3
 8008ca0:	69ba      	ldr	r2, [r7, #24]
 8008ca2:	4313      	orrs	r3, r2
 8008ca4:	61bb      	str	r3, [r7, #24]
      GPIOx->PUPDR = temp;
 8008ca6:	687b      	ldr	r3, [r7, #4]
 8008ca8:	69ba      	ldr	r2, [r7, #24]
 8008caa:	60da      	str	r2, [r3, #12]

      /* In case of Alternate function mode selection */
      if((GPIO_Init->Mode == GPIO_MODE_AF_PP) || (GPIO_Init->Mode == GPIO_MODE_AF_OD))
 8008cac:	683b      	ldr	r3, [r7, #0]
 8008cae:	685b      	ldr	r3, [r3, #4]
 8008cb0:	2b02      	cmp	r3, #2
 8008cb2:	d003      	beq.n	8008cbc <HAL_GPIO_Init+0xfc>
 8008cb4:	683b      	ldr	r3, [r7, #0]
 8008cb6:	685b      	ldr	r3, [r3, #4]
 8008cb8:	2b12      	cmp	r3, #18
 8008cba:	d123      	bne.n	8008d04 <HAL_GPIO_Init+0x144>
      {
        /* Check the Alternate function parameter */
        assert_param(IS_GPIO_AF(GPIO_Init->Alternate));
        /* Configure Alternate function mapped with the current IO */
        temp = GPIOx->AFR[position >> 3U];
 8008cbc:	69fb      	ldr	r3, [r7, #28]
 8008cbe:	08da      	lsrs	r2, r3, #3
 8008cc0:	687b      	ldr	r3, [r7, #4]
 8008cc2:	3208      	adds	r2, #8
 8008cc4:	f853 3022 	ldr.w	r3, [r3, r2, lsl #2]
 8008cc8:	61bb      	str	r3, [r7, #24]
        temp &= ~(0xFU << ((uint32_t)(position & 0x07U) * 4U)) ;
 8008cca:	69fb      	ldr	r3, [r7, #28]
 8008ccc:	f003 0307 	and.w	r3, r3, #7
 8008cd0:	009b      	lsls	r3, r3, #2
 8008cd2:	220f      	movs	r2, #15
 8008cd4:	fa02 f303 	lsl.w	r3, r2, r3
 8008cd8:	43db      	mvns	r3, r3
 8008cda:	69ba      	ldr	r2, [r7, #24]
 8008cdc:	4013      	ands	r3, r2
 8008cde:	61bb      	str	r3, [r7, #24]
        temp |= ((uint32_t)(GPIO_Init->Alternate) << (((uint32_t)position & 0x07U) * 4U));
 8008ce0:	683b      	ldr	r3, [r7, #0]
 8008ce2:	691a      	ldr	r2, [r3, #16]
 8008ce4:	69fb      	ldr	r3, [r7, #28]
 8008ce6:	f003 0307 	and.w	r3, r3, #7
 8008cea:	009b      	lsls	r3, r3, #2
 8008cec:	fa02 f303 	lsl.w	r3, r2, r3
 8008cf0:	69ba      	ldr	r2, [r7, #24]
 8008cf2:	4313      	orrs	r3, r2
 8008cf4:	61bb      	str	r3, [r7, #24]
        GPIOx->AFR[position >> 3U] = temp;
 8008cf6:	69fb      	ldr	r3, [r7, #28]
 8008cf8:	08da      	lsrs	r2, r3, #3
 8008cfa:	687b      	ldr	r3, [r7, #4]
 8008cfc:	3208      	adds	r2, #8
 8008cfe:	69b9      	ldr	r1, [r7, #24]
 8008d00:	f843 1022 	str.w	r1, [r3, r2, lsl #2]
      }

      /* Configure IO Direction mode (Input, Output, Alternate or Analog) */
      temp = GPIOx->MODER;
 8008d04:	687b      	ldr	r3, [r7, #4]
 8008d06:	681b      	ldr	r3, [r3, #0]
 8008d08:	61bb      	str	r3, [r7, #24]
      temp &= ~(GPIO_MODER_MODER0 << (position * 2U));
 8008d0a:	69fb      	ldr	r3, [r7, #28]
 8008d0c:	005b      	lsls	r3, r3, #1
 8008d0e:	2203      	movs	r2, #3
 8008d10:	fa02 f303 	lsl.w	r3, r2, r3
 8008d14:	43db      	mvns	r3, r3
 8008d16:	69ba      	ldr	r2, [r7, #24]
 8008d18:	4013      	ands	r3, r2
 8008d1a:	61bb      	str	r3, [r7, #24]
      temp |= ((GPIO_Init->Mode & GPIO_MODE) << (position * 2U));
 8008d1c:	683b      	ldr	r3, [r7, #0]
 8008d1e:	685b      	ldr	r3, [r3, #4]
 8008d20:	f003 0203 	and.w	r2, r3, #3
 8008d24:	69fb      	ldr	r3, [r7, #28]
 8008d26:	005b      	lsls	r3, r3, #1
 8008d28:	fa02 f303 	lsl.w	r3, r2, r3
 8008d2c:	69ba      	ldr	r2, [r7, #24]
 8008d2e:	4313      	orrs	r3, r2
 8008d30:	61bb      	str	r3, [r7, #24]
      GPIOx->MODER = temp;
 8008d32:	687b      	ldr	r3, [r7, #4]
 8008d34:	69ba      	ldr	r2, [r7, #24]
 8008d36:	601a      	str	r2, [r3, #0]

      /*--------------------- EXTI Mode Configuration ------------------------*/
      /* Configure the External Interrupt or event for the current IO */
      if((GPIO_Init->Mode & EXTI_MODE) == EXTI_MODE)
 8008d38:	683b      	ldr	r3, [r7, #0]
 8008d3a:	685b      	ldr	r3, [r3, #4]
 8008d3c:	f003 5380 	and.w	r3, r3, #268435456	; 0x10000000
 8008d40:	2b00      	cmp	r3, #0
 8008d42:	f000 80b4 	beq.w	8008eae <HAL_GPIO_Init+0x2ee>
      {
        /* Enable SYSCFG Clock */
        __HAL_RCC_SYSCFG_CLK_ENABLE();
 8008d46:	2300      	movs	r3, #0
 8008d48:	60fb      	str	r3, [r7, #12]
 8008d4a:	4b5f      	ldr	r3, [pc, #380]	; (8008ec8 <HAL_GPIO_Init+0x308>)
 8008d4c:	6c5b      	ldr	r3, [r3, #68]	; 0x44
 8008d4e:	4a5e      	ldr	r2, [pc, #376]	; (8008ec8 <HAL_GPIO_Init+0x308>)
 8008d50:	f443 4380 	orr.w	r3, r3, #16384	; 0x4000
 8008d54:	6453      	str	r3, [r2, #68]	; 0x44
 8008d56:	4b5c      	ldr	r3, [pc, #368]	; (8008ec8 <HAL_GPIO_Init+0x308>)
 8008d58:	6c5b      	ldr	r3, [r3, #68]	; 0x44
 8008d5a:	f403 4380 	and.w	r3, r3, #16384	; 0x4000
 8008d5e:	60fb      	str	r3, [r7, #12]
 8008d60:	68fb      	ldr	r3, [r7, #12]

        temp = SYSCFG->EXTICR[position >> 2U];
 8008d62:	4a5a      	ldr	r2, [pc, #360]	; (8008ecc <HAL_GPIO_Init+0x30c>)
 8008d64:	69fb      	ldr	r3, [r7, #28]
 8008d66:	089b      	lsrs	r3, r3, #2
 8008d68:	3302      	adds	r3, #2
 8008d6a:	f852 3023 	ldr.w	r3, [r2, r3, lsl #2]
 8008d6e:	61bb      	str	r3, [r7, #24]
        temp &= ~(0x0FU << (4U * (position & 0x03U)));
 8008d70:	69fb      	ldr	r3, [r7, #28]
 8008d72:	f003 0303 	and.w	r3, r3, #3
 8008d76:	009b      	lsls	r3, r3, #2
 8008d78:	220f      	movs	r2, #15
 8008d7a:	fa02 f303 	lsl.w	r3, r2, r3
 8008d7e:	43db      	mvns	r3, r3
 8008d80:	69ba      	ldr	r2, [r7, #24]
 8008d82:	4013      	ands	r3, r2
 8008d84:	61bb      	str	r3, [r7, #24]
        temp |= ((uint32_t)(GPIO_GET_INDEX(GPIOx)) << (4U * (position & 0x03U)));
 8008d86:	687b      	ldr	r3, [r7, #4]
 8008d88:	4a51      	ldr	r2, [pc, #324]	; (8008ed0 <HAL_GPIO_Init+0x310>)
 8008d8a:	4293      	cmp	r3, r2
 8008d8c:	d02b      	beq.n	8008de6 <HAL_GPIO_Init+0x226>
 8008d8e:	687b      	ldr	r3, [r7, #4]
 8008d90:	4a50      	ldr	r2, [pc, #320]	; (8008ed4 <HAL_GPIO_Init+0x314>)
 8008d92:	4293      	cmp	r3, r2
 8008d94:	d025      	beq.n	8008de2 <HAL_GPIO_Init+0x222>
 8008d96:	687b      	ldr	r3, [r7, #4]
 8008d98:	4a4f      	ldr	r2, [pc, #316]	; (8008ed8 <HAL_GPIO_Init+0x318>)
 8008d9a:	4293      	cmp	r3, r2
 8008d9c:	d01f      	beq.n	8008dde <HAL_GPIO_Init+0x21e>
 8008d9e:	687b      	ldr	r3, [r7, #4]
 8008da0:	4a4e      	ldr	r2, [pc, #312]	; (8008edc <HAL_GPIO_Init+0x31c>)
 8008da2:	4293      	cmp	r3, r2
 8008da4:	d019      	beq.n	8008dda <HAL_GPIO_Init+0x21a>
 8008da6:	687b      	ldr	r3, [r7, #4]
 8008da8:	4a4d      	ldr	r2, [pc, #308]	; (8008ee0 <HAL_GPIO_Init+0x320>)
 8008daa:	4293      	cmp	r3, r2
 8008dac:	d013      	beq.n	8008dd6 <HAL_GPIO_Init+0x216>
 8008dae:	687b      	ldr	r3, [r7, #4]
 8008db0:	4a4c      	ldr	r2, [pc, #304]	; (8008ee4 <HAL_GPIO_Init+0x324>)
 8008db2:	4293      	cmp	r3, r2
 8008db4:	d00d      	beq.n	8008dd2 <HAL_GPIO_Init+0x212>
 8008db6:	687b      	ldr	r3, [r7, #4]
 8008db8:	4a4b      	ldr	r2, [pc, #300]	; (8008ee8 <HAL_GPIO_Init+0x328>)
 8008dba:	4293      	cmp	r3, r2
 8008dbc:	d007      	beq.n	8008dce <HAL_GPIO_Init+0x20e>
 8008dbe:	687b      	ldr	r3, [r7, #4]
 8008dc0:	4a4a      	ldr	r2, [pc, #296]	; (8008eec <HAL_GPIO_Init+0x32c>)
 8008dc2:	4293      	cmp	r3, r2
 8008dc4:	d101      	bne.n	8008dca <HAL_GPIO_Init+0x20a>
 8008dc6:	2307      	movs	r3, #7
 8008dc8:	e00e      	b.n	8008de8 <HAL_GPIO_Init+0x228>
 8008dca:	2308      	movs	r3, #8
 8008dcc:	e00c      	b.n	8008de8 <HAL_GPIO_Init+0x228>
 8008dce:	2306      	movs	r3, #6
 8008dd0:	e00a      	b.n	8008de8 <HAL_GPIO_Init+0x228>
 8008dd2:	2305      	movs	r3, #5
 8008dd4:	e008      	b.n	8008de8 <HAL_GPIO_Init+0x228>
 8008dd6:	2304      	movs	r3, #4
 8008dd8:	e006      	b.n	8008de8 <HAL_GPIO_Init+0x228>
 8008dda:	2303      	movs	r3, #3
 8008ddc:	e004      	b.n	8008de8 <HAL_GPIO_Init+0x228>
 8008dde:	2302      	movs	r3, #2
 8008de0:	e002      	b.n	8008de8 <HAL_GPIO_Init+0x228>
 8008de2:	2301      	movs	r3, #1
 8008de4:	e000      	b.n	8008de8 <HAL_GPIO_Init+0x228>
 8008de6:	2300      	movs	r3, #0
 8008de8:	69fa      	ldr	r2, [r7, #28]
 8008dea:	f002 0203 	and.w	r2, r2, #3
 8008dee:	0092      	lsls	r2, r2, #2
 8008df0:	4093      	lsls	r3, r2
 8008df2:	69ba      	ldr	r2, [r7, #24]
 8008df4:	4313      	orrs	r3, r2
 8008df6:	61bb      	str	r3, [r7, #24]
        SYSCFG->EXTICR[position >> 2U] = temp;
 8008df8:	4934      	ldr	r1, [pc, #208]	; (8008ecc <HAL_GPIO_Init+0x30c>)
 8008dfa:	69fb      	ldr	r3, [r7, #28]
 8008dfc:	089b      	lsrs	r3, r3, #2
 8008dfe:	3302      	adds	r3, #2
 8008e00:	69ba      	ldr	r2, [r7, #24]
 8008e02:	f841 2023 	str.w	r2, [r1, r3, lsl #2]

        /* Clear EXTI line configuration */
        temp = EXTI->IMR;
 8008e06:	4b3a      	ldr	r3, [pc, #232]	; (8008ef0 <HAL_GPIO_Init+0x330>)
 8008e08:	681b      	ldr	r3, [r3, #0]
 8008e0a:	61bb      	str	r3, [r7, #24]
        temp &= ~((uint32_t)iocurrent);
 8008e0c:	693b      	ldr	r3, [r7, #16]
 8008e0e:	43db      	mvns	r3, r3
 8008e10:	69ba      	ldr	r2, [r7, #24]
 8008e12:	4013      	ands	r3, r2
 8008e14:	61bb      	str	r3, [r7, #24]
        if((GPIO_Init->Mode & GPIO_MODE_IT) == GPIO_MODE_IT)
 8008e16:	683b      	ldr	r3, [r7, #0]
 8008e18:	685b      	ldr	r3, [r3, #4]
 8008e1a:	f403 3380 	and.w	r3, r3, #65536	; 0x10000
 8008e1e:	2b00      	cmp	r3, #0
 8008e20:	d003      	beq.n	8008e2a <HAL_GPIO_Init+0x26a>
        {
          temp |= iocurrent;
 8008e22:	69ba      	ldr	r2, [r7, #24]
 8008e24:	693b      	ldr	r3, [r7, #16]
 8008e26:	4313      	orrs	r3, r2
 8008e28:	61bb      	str	r3, [r7, #24]
        }
        EXTI->IMR = temp;
 8008e2a:	4a31      	ldr	r2, [pc, #196]	; (8008ef0 <HAL_GPIO_Init+0x330>)
 8008e2c:	69bb      	ldr	r3, [r7, #24]
 8008e2e:	6013      	str	r3, [r2, #0]

        temp = EXTI->EMR;
 8008e30:	4b2f      	ldr	r3, [pc, #188]	; (8008ef0 <HAL_GPIO_Init+0x330>)
 8008e32:	685b      	ldr	r3, [r3, #4]
 8008e34:	61bb      	str	r3, [r7, #24]
        temp &= ~((uint32_t)iocurrent);
 8008e36:	693b      	ldr	r3, [r7, #16]
 8008e38:	43db      	mvns	r3, r3
 8008e3a:	69ba      	ldr	r2, [r7, #24]
 8008e3c:	4013      	ands	r3, r2
 8008e3e:	61bb      	str	r3, [r7, #24]
        if((GPIO_Init->Mode & GPIO_MODE_EVT) == GPIO_MODE_EVT)
 8008e40:	683b      	ldr	r3, [r7, #0]
 8008e42:	685b      	ldr	r3, [r3, #4]
 8008e44:	f403 3300 	and.w	r3, r3, #131072	; 0x20000
 8008e48:	2b00      	cmp	r3, #0
 8008e4a:	d003      	beq.n	8008e54 <HAL_GPIO_Init+0x294>
        {
          temp |= iocurrent;
 8008e4c:	69ba      	ldr	r2, [r7, #24]
 8008e4e:	693b      	ldr	r3, [r7, #16]
 8008e50:	4313      	orrs	r3, r2
 8008e52:	61bb      	str	r3, [r7, #24]
        }
        EXTI->EMR = temp;
 8008e54:	4a26      	ldr	r2, [pc, #152]	; (8008ef0 <HAL_GPIO_Init+0x330>)
 8008e56:	69bb      	ldr	r3, [r7, #24]
 8008e58:	6053      	str	r3, [r2, #4]

        /* Clear Rising Falling edge configuration */
        temp = EXTI->RTSR;
 8008e5a:	4b25      	ldr	r3, [pc, #148]	; (8008ef0 <HAL_GPIO_Init+0x330>)
 8008e5c:	689b      	ldr	r3, [r3, #8]
 8008e5e:	61bb      	str	r3, [r7, #24]
        temp &= ~((uint32_t)iocurrent);
 8008e60:	693b      	ldr	r3, [r7, #16]
 8008e62:	43db      	mvns	r3, r3
 8008e64:	69ba      	ldr	r2, [r7, #24]
 8008e66:	4013      	ands	r3, r2
 8008e68:	61bb      	str	r3, [r7, #24]
        if((GPIO_Init->Mode & RISING_EDGE) == RISING_EDGE)
 8008e6a:	683b      	ldr	r3, [r7, #0]
 8008e6c:	685b      	ldr	r3, [r3, #4]
 8008e6e:	f403 1380 	and.w	r3, r3, #1048576	; 0x100000
 8008e72:	2b00      	cmp	r3, #0
 8008e74:	d003      	beq.n	8008e7e <HAL_GPIO_Init+0x2be>
        {
          temp |= iocurrent;
 8008e76:	69ba      	ldr	r2, [r7, #24]
 8008e78:	693b      	ldr	r3, [r7, #16]
 8008e7a:	4313      	orrs	r3, r2
 8008e7c:	61bb      	str	r3, [r7, #24]
        }
        EXTI->RTSR = temp;
 8008e7e:	4a1c      	ldr	r2, [pc, #112]	; (8008ef0 <HAL_GPIO_Init+0x330>)
 8008e80:	69bb      	ldr	r3, [r7, #24]
 8008e82:	6093      	str	r3, [r2, #8]

        temp = EXTI->FTSR;
 8008e84:	4b1a      	ldr	r3, [pc, #104]	; (8008ef0 <HAL_GPIO_Init+0x330>)
 8008e86:	68db      	ldr	r3, [r3, #12]
 8008e88:	61bb      	str	r3, [r7, #24]
        temp &= ~((uint32_t)iocurrent);
 8008e8a:	693b      	ldr	r3, [r7, #16]
 8008e8c:	43db      	mvns	r3, r3
 8008e8e:	69ba      	ldr	r2, [r7, #24]
 8008e90:	4013      	ands	r3, r2
 8008e92:	61bb      	str	r3, [r7, #24]
        if((GPIO_Init->Mode & FALLING_EDGE) == FALLING_EDGE)
 8008e94:	683b      	ldr	r3, [r7, #0]
 8008e96:	685b      	ldr	r3, [r3, #4]
 8008e98:	f403 1300 	and.w	r3, r3, #2097152	; 0x200000
 8008e9c:	2b00      	cmp	r3, #0
 8008e9e:	d003      	beq.n	8008ea8 <HAL_GPIO_Init+0x2e8>
        {
          temp |= iocurrent;
 8008ea0:	69ba      	ldr	r2, [r7, #24]
 8008ea2:	693b      	ldr	r3, [r7, #16]
 8008ea4:	4313      	orrs	r3, r2
 8008ea6:	61bb      	str	r3, [r7, #24]
        }
        EXTI->FTSR = temp;
 8008ea8:	4a11      	ldr	r2, [pc, #68]	; (8008ef0 <HAL_GPIO_Init+0x330>)
 8008eaa:	69bb      	ldr	r3, [r7, #24]
 8008eac:	60d3      	str	r3, [r2, #12]
  for(position = 0U; position < GPIO_NUMBER; position++)
 8008eae:	69fb      	ldr	r3, [r7, #28]
 8008eb0:	3301      	adds	r3, #1
 8008eb2:	61fb      	str	r3, [r7, #28]
 8008eb4:	69fb      	ldr	r3, [r7, #28]
 8008eb6:	2b0f      	cmp	r3, #15
 8008eb8:	f67f ae90 	bls.w	8008bdc <HAL_GPIO_Init+0x1c>
      }
    }
  }
}
 8008ebc:	bf00      	nop
 8008ebe:	3724      	adds	r7, #36	; 0x24
 8008ec0:	46bd      	mov	sp, r7
 8008ec2:	f85d 7b04 	ldr.w	r7, [sp], #4
 8008ec6:	4770      	bx	lr
 8008ec8:	40023800 	.word	0x40023800
 8008ecc:	40013800 	.word	0x40013800
 8008ed0:	40020000 	.word	0x40020000
 8008ed4:	40020400 	.word	0x40020400
 8008ed8:	40020800 	.word	0x40020800
 8008edc:	40020c00 	.word	0x40020c00
 8008ee0:	40021000 	.word	0x40021000
 8008ee4:	40021400 	.word	0x40021400
 8008ee8:	40021800 	.word	0x40021800
 8008eec:	40021c00 	.word	0x40021c00
 8008ef0:	40013c00 	.word	0x40013c00

08008ef4 <HAL_GPIO_WritePin>:
  *            @arg GPIO_PIN_RESET: to clear the port pin
  *            @arg GPIO_PIN_SET: to set the port pin
  * @retval None
  */
void HAL_GPIO_WritePin(GPIO_TypeDef* GPIOx, uint16_t GPIO_Pin, GPIO_PinState PinState)
{
 8008ef4:	b480      	push	{r7}
 8008ef6:	b083      	sub	sp, #12
 8008ef8:	af00      	add	r7, sp, #0
 8008efa:	6078      	str	r0, [r7, #4]
 8008efc:	460b      	mov	r3, r1
 8008efe:	807b      	strh	r3, [r7, #2]
 8008f00:	4613      	mov	r3, r2
 8008f02:	707b      	strb	r3, [r7, #1]
  /* Check the parameters */
  assert_param(IS_GPIO_PIN(GPIO_Pin));
  assert_param(IS_GPIO_PIN_ACTION(PinState));

  if(PinState != GPIO_PIN_RESET)
 8008f04:	787b      	ldrb	r3, [r7, #1]
 8008f06:	2b00      	cmp	r3, #0
 8008f08:	d003      	beq.n	8008f12 <HAL_GPIO_WritePin+0x1e>
  {
    GPIOx->BSRR = GPIO_Pin;
 8008f0a:	887a      	ldrh	r2, [r7, #2]
 8008f0c:	687b      	ldr	r3, [r7, #4]
 8008f0e:	619a      	str	r2, [r3, #24]
  }
  else
  {
    GPIOx->BSRR = (uint32_t)GPIO_Pin << 16U;
  }
}
 8008f10:	e003      	b.n	8008f1a <HAL_GPIO_WritePin+0x26>
    GPIOx->BSRR = (uint32_t)GPIO_Pin << 16U;
 8008f12:	887b      	ldrh	r3, [r7, #2]
 8008f14:	041a      	lsls	r2, r3, #16
 8008f16:	687b      	ldr	r3, [r7, #4]
 8008f18:	619a      	str	r2, [r3, #24]
}
 8008f1a:	bf00      	nop
 8008f1c:	370c      	adds	r7, #12
 8008f1e:	46bd      	mov	sp, r7
 8008f20:	f85d 7b04 	ldr.w	r7, [sp], #4
 8008f24:	4770      	bx	lr

08008f26 <HAL_GPIO_TogglePin>:
  *                      x can be (A..I) to select the GPIO peripheral for STM32F40XX and STM32F427X devices.
  * @param  GPIO_Pin Specifies the pins to be toggled.
  * @retval None
  */
void HAL_GPIO_TogglePin(GPIO_TypeDef* GPIOx, uint16_t GPIO_Pin)
{
 8008f26:	b480      	push	{r7}
 8008f28:	b083      	sub	sp, #12
 8008f2a:	af00      	add	r7, sp, #0
 8008f2c:	6078      	str	r0, [r7, #4]
 8008f2e:	460b      	mov	r3, r1
 8008f30:	807b      	strh	r3, [r7, #2]
  /* Check the parameters */
  assert_param(IS_GPIO_PIN(GPIO_Pin));

  if ((GPIOx->ODR & GPIO_Pin) == GPIO_Pin)
 8008f32:	687b      	ldr	r3, [r7, #4]
 8008f34:	695a      	ldr	r2, [r3, #20]
 8008f36:	887b      	ldrh	r3, [r7, #2]
 8008f38:	401a      	ands	r2, r3
 8008f3a:	887b      	ldrh	r3, [r7, #2]
 8008f3c:	429a      	cmp	r2, r3
 8008f3e:	d104      	bne.n	8008f4a <HAL_GPIO_TogglePin+0x24>
  {
    GPIOx->BSRR = (uint32_t)GPIO_Pin << GPIO_NUMBER;
 8008f40:	887b      	ldrh	r3, [r7, #2]
 8008f42:	041a      	lsls	r2, r3, #16
 8008f44:	687b      	ldr	r3, [r7, #4]
 8008f46:	619a      	str	r2, [r3, #24]
  }
  else
  {
    GPIOx->BSRR = GPIO_Pin;
  }
}
 8008f48:	e002      	b.n	8008f50 <HAL_GPIO_TogglePin+0x2a>
    GPIOx->BSRR = GPIO_Pin;
 8008f4a:	887a      	ldrh	r2, [r7, #2]
 8008f4c:	687b      	ldr	r3, [r7, #4]
 8008f4e:	619a      	str	r2, [r3, #24]
}
 8008f50:	bf00      	nop
 8008f52:	370c      	adds	r7, #12
 8008f54:	46bd      	mov	sp, r7
 8008f56:	f85d 7b04 	ldr.w	r7, [sp], #4
 8008f5a:	4770      	bx	lr

08008f5c <HAL_RCC_OscConfig>:
  *         supported by this API. User should request a transition to HSE Off
  *         first and then HSE On or HSE Bypass.
  * @retval HAL status
  */
__weak HAL_StatusTypeDef HAL_RCC_OscConfig(RCC_OscInitTypeDef  *RCC_OscInitStruct)
{
 8008f5c:	b580      	push	{r7, lr}
 8008f5e:	b086      	sub	sp, #24
 8008f60:	af00      	add	r7, sp, #0
 8008f62:	6078      	str	r0, [r7, #4]
  uint32_t tickstart, pll_config;

  /* Check Null pointer */
  if(RCC_OscInitStruct == NULL)
 8008f64:	687b      	ldr	r3, [r7, #4]
 8008f66:	2b00      	cmp	r3, #0
 8008f68:	d101      	bne.n	8008f6e <HAL_RCC_OscConfig+0x12>
  {
    return HAL_ERROR;
 8008f6a:	2301      	movs	r3, #1
 8008f6c:	e25b      	b.n	8009426 <HAL_RCC_OscConfig+0x4ca>
  }

  /* Check the parameters */
  assert_param(IS_RCC_OSCILLATORTYPE(RCC_OscInitStruct->OscillatorType));
  /*------------------------------- HSE Configuration ------------------------*/
  if(((RCC_OscInitStruct->OscillatorType) & RCC_OSCILLATORTYPE_HSE) == RCC_OSCILLATORTYPE_HSE)
 8008f6e:	687b      	ldr	r3, [r7, #4]
 8008f70:	681b      	ldr	r3, [r3, #0]
 8008f72:	f003 0301 	and.w	r3, r3, #1
 8008f76:	2b00      	cmp	r3, #0
 8008f78:	d075      	beq.n	8009066 <HAL_RCC_OscConfig+0x10a>
  {
    /* Check the parameters */
    assert_param(IS_RCC_HSE(RCC_OscInitStruct->HSEState));
    /* When the HSE is used as system clock or clock source for PLL in these cases HSE will not disabled */
    if((__HAL_RCC_GET_SYSCLK_SOURCE() == RCC_CFGR_SWS_HSE) ||\
 8008f7a:	4ba3      	ldr	r3, [pc, #652]	; (8009208 <HAL_RCC_OscConfig+0x2ac>)
 8008f7c:	689b      	ldr	r3, [r3, #8]
 8008f7e:	f003 030c 	and.w	r3, r3, #12
 8008f82:	2b04      	cmp	r3, #4
 8008f84:	d00c      	beq.n	8008fa0 <HAL_RCC_OscConfig+0x44>
      ((__HAL_RCC_GET_SYSCLK_SOURCE() == RCC_CFGR_SWS_PLL) && ((RCC->PLLCFGR & RCC_PLLCFGR_PLLSRC) == RCC_PLLCFGR_PLLSRC_HSE)))
 8008f86:	4ba0      	ldr	r3, [pc, #640]	; (8009208 <HAL_RCC_OscConfig+0x2ac>)
 8008f88:	689b      	ldr	r3, [r3, #8]
 8008f8a:	f003 030c 	and.w	r3, r3, #12
    if((__HAL_RCC_GET_SYSCLK_SOURCE() == RCC_CFGR_SWS_HSE) ||\
 8008f8e:	2b08      	cmp	r3, #8
 8008f90:	d112      	bne.n	8008fb8 <HAL_RCC_OscConfig+0x5c>
      ((__HAL_RCC_GET_SYSCLK_SOURCE() == RCC_CFGR_SWS_PLL) && ((RCC->PLLCFGR & RCC_PLLCFGR_PLLSRC) == RCC_PLLCFGR_PLLSRC_HSE)))
 8008f92:	4b9d      	ldr	r3, [pc, #628]	; (8009208 <HAL_RCC_OscConfig+0x2ac>)
 8008f94:	685b      	ldr	r3, [r3, #4]
 8008f96:	f403 0380 	and.w	r3, r3, #4194304	; 0x400000
 8008f9a:	f5b3 0f80 	cmp.w	r3, #4194304	; 0x400000
 8008f9e:	d10b      	bne.n	8008fb8 <HAL_RCC_OscConfig+0x5c>
    {
      if((__HAL_RCC_GET_FLAG(RCC_FLAG_HSERDY) != RESET) && (RCC_OscInitStruct->HSEState == RCC_HSE_OFF))
 8008fa0:	4b99      	ldr	r3, [pc, #612]	; (8009208 <HAL_RCC_OscConfig+0x2ac>)
 8008fa2:	681b      	ldr	r3, [r3, #0]
 8008fa4:	f403 3300 	and.w	r3, r3, #131072	; 0x20000
 8008fa8:	2b00      	cmp	r3, #0
 8008faa:	d05b      	beq.n	8009064 <HAL_RCC_OscConfig+0x108>
 8008fac:	687b      	ldr	r3, [r7, #4]
 8008fae:	685b      	ldr	r3, [r3, #4]
 8008fb0:	2b00      	cmp	r3, #0
 8008fb2:	d157      	bne.n	8009064 <HAL_RCC_OscConfig+0x108>
      {
        return HAL_ERROR;
 8008fb4:	2301      	movs	r3, #1
 8008fb6:	e236      	b.n	8009426 <HAL_RCC_OscConfig+0x4ca>
      }
    }
    else
    {
      /* Set the new HSE configuration ---------------------------------------*/
      __HAL_RCC_HSE_CONFIG(RCC_OscInitStruct->HSEState);
 8008fb8:	687b      	ldr	r3, [r7, #4]
 8008fba:	685b      	ldr	r3, [r3, #4]
 8008fbc:	f5b3 3f80 	cmp.w	r3, #65536	; 0x10000
 8008fc0:	d106      	bne.n	8008fd0 <HAL_RCC_OscConfig+0x74>
 8008fc2:	4b91      	ldr	r3, [pc, #580]	; (8009208 <HAL_RCC_OscConfig+0x2ac>)
 8008fc4:	681b      	ldr	r3, [r3, #0]
 8008fc6:	4a90      	ldr	r2, [pc, #576]	; (8009208 <HAL_RCC_OscConfig+0x2ac>)
 8008fc8:	f443 3380 	orr.w	r3, r3, #65536	; 0x10000
 8008fcc:	6013      	str	r3, [r2, #0]
 8008fce:	e01d      	b.n	800900c <HAL_RCC_OscConfig+0xb0>
 8008fd0:	687b      	ldr	r3, [r7, #4]
 8008fd2:	685b      	ldr	r3, [r3, #4]
 8008fd4:	f5b3 2fa0 	cmp.w	r3, #327680	; 0x50000
 8008fd8:	d10c      	bne.n	8008ff4 <HAL_RCC_OscConfig+0x98>
 8008fda:	4b8b      	ldr	r3, [pc, #556]	; (8009208 <HAL_RCC_OscConfig+0x2ac>)
 8008fdc:	681b      	ldr	r3, [r3, #0]
 8008fde:	4a8a      	ldr	r2, [pc, #552]	; (8009208 <HAL_RCC_OscConfig+0x2ac>)
 8008fe0:	f443 2380 	orr.w	r3, r3, #262144	; 0x40000
 8008fe4:	6013      	str	r3, [r2, #0]
 8008fe6:	4b88      	ldr	r3, [pc, #544]	; (8009208 <HAL_RCC_OscConfig+0x2ac>)
 8008fe8:	681b      	ldr	r3, [r3, #0]
 8008fea:	4a87      	ldr	r2, [pc, #540]	; (8009208 <HAL_RCC_OscConfig+0x2ac>)
 8008fec:	f443 3380 	orr.w	r3, r3, #65536	; 0x10000
 8008ff0:	6013      	str	r3, [r2, #0]
 8008ff2:	e00b      	b.n	800900c <HAL_RCC_OscConfig+0xb0>
 8008ff4:	4b84      	ldr	r3, [pc, #528]	; (8009208 <HAL_RCC_OscConfig+0x2ac>)
 8008ff6:	681b      	ldr	r3, [r3, #0]
 8008ff8:	4a83      	ldr	r2, [pc, #524]	; (8009208 <HAL_RCC_OscConfig+0x2ac>)
 8008ffa:	f423 3380 	bic.w	r3, r3, #65536	; 0x10000
 8008ffe:	6013      	str	r3, [r2, #0]
 8009000:	4b81      	ldr	r3, [pc, #516]	; (8009208 <HAL_RCC_OscConfig+0x2ac>)
 8009002:	681b      	ldr	r3, [r3, #0]
 8009004:	4a80      	ldr	r2, [pc, #512]	; (8009208 <HAL_RCC_OscConfig+0x2ac>)
 8009006:	f423 2380 	bic.w	r3, r3, #262144	; 0x40000
 800900a:	6013      	str	r3, [r2, #0]

      /* Check the HSE State */
      if((RCC_OscInitStruct->HSEState) != RCC_HSE_OFF)
 800900c:	687b      	ldr	r3, [r7, #4]
 800900e:	685b      	ldr	r3, [r3, #4]
 8009010:	2b00      	cmp	r3, #0
 8009012:	d013      	beq.n	800903c <HAL_RCC_OscConfig+0xe0>
      {
        /* Get Start Tick */
        tickstart = HAL_GetTick();
 8009014:	f7ff fcc0 	bl	8008998 <HAL_GetTick>
 8009018:	6138      	str	r0, [r7, #16]

        /* Wait till HSE is ready */
        while(__HAL_RCC_GET_FLAG(RCC_FLAG_HSERDY) == RESET)
 800901a:	e008      	b.n	800902e <HAL_RCC_OscConfig+0xd2>
        {
          if((HAL_GetTick() - tickstart ) > HSE_TIMEOUT_VALUE)
 800901c:	f7ff fcbc 	bl	8008998 <HAL_GetTick>
 8009020:	4602      	mov	r2, r0
 8009022:	693b      	ldr	r3, [r7, #16]
 8009024:	1ad3      	subs	r3, r2, r3
 8009026:	2b64      	cmp	r3, #100	; 0x64
 8009028:	d901      	bls.n	800902e <HAL_RCC_OscConfig+0xd2>
          {
            return HAL_TIMEOUT;
 800902a:	2303      	movs	r3, #3
 800902c:	e1fb      	b.n	8009426 <HAL_RCC_OscConfig+0x4ca>
        while(__HAL_RCC_GET_FLAG(RCC_FLAG_HSERDY) == RESET)
 800902e:	4b76      	ldr	r3, [pc, #472]	; (8009208 <HAL_RCC_OscConfig+0x2ac>)
 8009030:	681b      	ldr	r3, [r3, #0]
 8009032:	f403 3300 	and.w	r3, r3, #131072	; 0x20000
 8009036:	2b00      	cmp	r3, #0
 8009038:	d0f0      	beq.n	800901c <HAL_RCC_OscConfig+0xc0>
 800903a:	e014      	b.n	8009066 <HAL_RCC_OscConfig+0x10a>
        }
      }
      else
      {
        /* Get Start Tick */
        tickstart = HAL_GetTick();
 800903c:	f7ff fcac 	bl	8008998 <HAL_GetTick>
 8009040:	6138      	str	r0, [r7, #16]

        /* Wait till HSE is bypassed or disabled */
        while(__HAL_RCC_GET_FLAG(RCC_FLAG_HSERDY) != RESET)
 8009042:	e008      	b.n	8009056 <HAL_RCC_OscConfig+0xfa>
        {
          if((HAL_GetTick() - tickstart ) > HSE_TIMEOUT_VALUE)
 8009044:	f7ff fca8 	bl	8008998 <HAL_GetTick>
 8009048:	4602      	mov	r2, r0
 800904a:	693b      	ldr	r3, [r7, #16]
 800904c:	1ad3      	subs	r3, r2, r3
 800904e:	2b64      	cmp	r3, #100	; 0x64
 8009050:	d901      	bls.n	8009056 <HAL_RCC_OscConfig+0xfa>
          {
            return HAL_TIMEOUT;
 8009052:	2303      	movs	r3, #3
 8009054:	e1e7      	b.n	8009426 <HAL_RCC_OscConfig+0x4ca>
        while(__HAL_RCC_GET_FLAG(RCC_FLAG_HSERDY) != RESET)
 8009056:	4b6c      	ldr	r3, [pc, #432]	; (8009208 <HAL_RCC_OscConfig+0x2ac>)
 8009058:	681b      	ldr	r3, [r3, #0]
 800905a:	f403 3300 	and.w	r3, r3, #131072	; 0x20000
 800905e:	2b00      	cmp	r3, #0
 8009060:	d1f0      	bne.n	8009044 <HAL_RCC_OscConfig+0xe8>
 8009062:	e000      	b.n	8009066 <HAL_RCC_OscConfig+0x10a>
      if((__HAL_RCC_GET_FLAG(RCC_FLAG_HSERDY) != RESET) && (RCC_OscInitStruct->HSEState == RCC_HSE_OFF))
 8009064:	bf00      	nop
        }
      }
    }
  }
  /*----------------------------- HSI Configuration --------------------------*/
  if(((RCC_OscInitStruct->OscillatorType) & RCC_OSCILLATORTYPE_HSI) == RCC_OSCILLATORTYPE_HSI)
 8009066:	687b      	ldr	r3, [r7, #4]
 8009068:	681b      	ldr	r3, [r3, #0]
 800906a:	f003 0302 	and.w	r3, r3, #2
 800906e:	2b00      	cmp	r3, #0
 8009070:	d063      	beq.n	800913a <HAL_RCC_OscConfig+0x1de>
    /* Check the parameters */
    assert_param(IS_RCC_HSI(RCC_OscInitStruct->HSIState));
    assert_param(IS_RCC_CALIBRATION_VALUE(RCC_OscInitStruct->HSICalibrationValue));

    /* Check if HSI is used as system clock or as PLL source when PLL is selected as system clock */
    if((__HAL_RCC_GET_SYSCLK_SOURCE() == RCC_CFGR_SWS_HSI) ||\
 8009072:	4b65      	ldr	r3, [pc, #404]	; (8009208 <HAL_RCC_OscConfig+0x2ac>)
 8009074:	689b      	ldr	r3, [r3, #8]
 8009076:	f003 030c 	and.w	r3, r3, #12
 800907a:	2b00      	cmp	r3, #0
 800907c:	d00b      	beq.n	8009096 <HAL_RCC_OscConfig+0x13a>
      ((__HAL_RCC_GET_SYSCLK_SOURCE() == RCC_CFGR_SWS_PLL) && ((RCC->PLLCFGR & RCC_PLLCFGR_PLLSRC) == RCC_PLLCFGR_PLLSRC_HSI)))
 800907e:	4b62      	ldr	r3, [pc, #392]	; (8009208 <HAL_RCC_OscConfig+0x2ac>)
 8009080:	689b      	ldr	r3, [r3, #8]
 8009082:	f003 030c 	and.w	r3, r3, #12
    if((__HAL_RCC_GET_SYSCLK_SOURCE() == RCC_CFGR_SWS_HSI) ||\
 8009086:	2b08      	cmp	r3, #8
 8009088:	d11c      	bne.n	80090c4 <HAL_RCC_OscConfig+0x168>
      ((__HAL_RCC_GET_SYSCLK_SOURCE() == RCC_CFGR_SWS_PLL) && ((RCC->PLLCFGR & RCC_PLLCFGR_PLLSRC) == RCC_PLLCFGR_PLLSRC_HSI)))
 800908a:	4b5f      	ldr	r3, [pc, #380]	; (8009208 <HAL_RCC_OscConfig+0x2ac>)
 800908c:	685b      	ldr	r3, [r3, #4]
 800908e:	f403 0380 	and.w	r3, r3, #4194304	; 0x400000
 8009092:	2b00      	cmp	r3, #0
 8009094:	d116      	bne.n	80090c4 <HAL_RCC_OscConfig+0x168>
    {
      /* When HSI is used as system clock it will not disabled */
      if((__HAL_RCC_GET_FLAG(RCC_FLAG_HSIRDY) != RESET) && (RCC_OscInitStruct->HSIState != RCC_HSI_ON))
 8009096:	4b5c      	ldr	r3, [pc, #368]	; (8009208 <HAL_RCC_OscConfig+0x2ac>)
 8009098:	681b      	ldr	r3, [r3, #0]
 800909a:	f003 0302 	and.w	r3, r3, #2
 800909e:	2b00      	cmp	r3, #0
 80090a0:	d005      	beq.n	80090ae <HAL_RCC_OscConfig+0x152>
 80090a2:	687b      	ldr	r3, [r7, #4]
 80090a4:	68db      	ldr	r3, [r3, #12]
 80090a6:	2b01      	cmp	r3, #1
 80090a8:	d001      	beq.n	80090ae <HAL_RCC_OscConfig+0x152>
      {
        return HAL_ERROR;
 80090aa:	2301      	movs	r3, #1
 80090ac:	e1bb      	b.n	8009426 <HAL_RCC_OscConfig+0x4ca>
      }
      /* Otherwise, just the calibration is allowed */
      else
      {
        /* Adjusts the Internal High Speed oscillator (HSI) calibration value.*/
        __HAL_RCC_HSI_CALIBRATIONVALUE_ADJUST(RCC_OscInitStruct->HSICalibrationValue);
 80090ae:	4b56      	ldr	r3, [pc, #344]	; (8009208 <HAL_RCC_OscConfig+0x2ac>)
 80090b0:	681b      	ldr	r3, [r3, #0]
 80090b2:	f023 02f8 	bic.w	r2, r3, #248	; 0xf8
 80090b6:	687b      	ldr	r3, [r7, #4]
 80090b8:	691b      	ldr	r3, [r3, #16]
 80090ba:	00db      	lsls	r3, r3, #3
 80090bc:	4952      	ldr	r1, [pc, #328]	; (8009208 <HAL_RCC_OscConfig+0x2ac>)
 80090be:	4313      	orrs	r3, r2
 80090c0:	600b      	str	r3, [r1, #0]
      if((__HAL_RCC_GET_FLAG(RCC_FLAG_HSIRDY) != RESET) && (RCC_OscInitStruct->HSIState != RCC_HSI_ON))
 80090c2:	e03a      	b.n	800913a <HAL_RCC_OscConfig+0x1de>
      }
    }
    else
    {
      /* Check the HSI State */
      if((RCC_OscInitStruct->HSIState)!= RCC_HSI_OFF)
 80090c4:	687b      	ldr	r3, [r7, #4]
 80090c6:	68db      	ldr	r3, [r3, #12]
 80090c8:	2b00      	cmp	r3, #0
 80090ca:	d020      	beq.n	800910e <HAL_RCC_OscConfig+0x1b2>
      {
        /* Enable the Internal High Speed oscillator (HSI). */
        __HAL_RCC_HSI_ENABLE();
 80090cc:	4b4f      	ldr	r3, [pc, #316]	; (800920c <HAL_RCC_OscConfig+0x2b0>)
 80090ce:	2201      	movs	r2, #1
 80090d0:	601a      	str	r2, [r3, #0]

        /* Get Start Tick*/
        tickstart = HAL_GetTick();
 80090d2:	f7ff fc61 	bl	8008998 <HAL_GetTick>
 80090d6:	6138      	str	r0, [r7, #16]

        /* Wait till HSI is ready */
        while(__HAL_RCC_GET_FLAG(RCC_FLAG_HSIRDY) == RESET)
 80090d8:	e008      	b.n	80090ec <HAL_RCC_OscConfig+0x190>
        {
          if((HAL_GetTick() - tickstart ) > HSI_TIMEOUT_VALUE)
 80090da:	f7ff fc5d 	bl	8008998 <HAL_GetTick>
 80090de:	4602      	mov	r2, r0
 80090e0:	693b      	ldr	r3, [r7, #16]
 80090e2:	1ad3      	subs	r3, r2, r3
 80090e4:	2b02      	cmp	r3, #2
 80090e6:	d901      	bls.n	80090ec <HAL_RCC_OscConfig+0x190>
          {
            return HAL_TIMEOUT;
 80090e8:	2303      	movs	r3, #3
 80090ea:	e19c      	b.n	8009426 <HAL_RCC_OscConfig+0x4ca>
        while(__HAL_RCC_GET_FLAG(RCC_FLAG_HSIRDY) == RESET)
 80090ec:	4b46      	ldr	r3, [pc, #280]	; (8009208 <HAL_RCC_OscConfig+0x2ac>)
 80090ee:	681b      	ldr	r3, [r3, #0]
 80090f0:	f003 0302 	and.w	r3, r3, #2
 80090f4:	2b00      	cmp	r3, #0
 80090f6:	d0f0      	beq.n	80090da <HAL_RCC_OscConfig+0x17e>
          }
        }

        /* Adjusts the Internal High Speed oscillator (HSI) calibration value. */
        __HAL_RCC_HSI_CALIBRATIONVALUE_ADJUST(RCC_OscInitStruct->HSICalibrationValue);
 80090f8:	4b43      	ldr	r3, [pc, #268]	; (8009208 <HAL_RCC_OscConfig+0x2ac>)
 80090fa:	681b      	ldr	r3, [r3, #0]
 80090fc:	f023 02f8 	bic.w	r2, r3, #248	; 0xf8
 8009100:	687b      	ldr	r3, [r7, #4]
 8009102:	691b      	ldr	r3, [r3, #16]
 8009104:	00db      	lsls	r3, r3, #3
 8009106:	4940      	ldr	r1, [pc, #256]	; (8009208 <HAL_RCC_OscConfig+0x2ac>)
 8009108:	4313      	orrs	r3, r2
 800910a:	600b      	str	r3, [r1, #0]
 800910c:	e015      	b.n	800913a <HAL_RCC_OscConfig+0x1de>
      }
      else
      {
        /* Disable the Internal High Speed oscillator (HSI). */
        __HAL_RCC_HSI_DISABLE();
 800910e:	4b3f      	ldr	r3, [pc, #252]	; (800920c <HAL_RCC_OscConfig+0x2b0>)
 8009110:	2200      	movs	r2, #0
 8009112:	601a      	str	r2, [r3, #0]

        /* Get Start Tick*/
        tickstart = HAL_GetTick();
 8009114:	f7ff fc40 	bl	8008998 <HAL_GetTick>
 8009118:	6138      	str	r0, [r7, #16]

        /* Wait till HSI is ready */
        while(__HAL_RCC_GET_FLAG(RCC_FLAG_HSIRDY) != RESET)
 800911a:	e008      	b.n	800912e <HAL_RCC_OscConfig+0x1d2>
        {
          if((HAL_GetTick() - tickstart ) > HSI_TIMEOUT_VALUE)
 800911c:	f7ff fc3c 	bl	8008998 <HAL_GetTick>
 8009120:	4602      	mov	r2, r0
 8009122:	693b      	ldr	r3, [r7, #16]
 8009124:	1ad3      	subs	r3, r2, r3
 8009126:	2b02      	cmp	r3, #2
 8009128:	d901      	bls.n	800912e <HAL_RCC_OscConfig+0x1d2>
          {
            return HAL_TIMEOUT;
 800912a:	2303      	movs	r3, #3
 800912c:	e17b      	b.n	8009426 <HAL_RCC_OscConfig+0x4ca>
        while(__HAL_RCC_GET_FLAG(RCC_FLAG_HSIRDY) != RESET)
 800912e:	4b36      	ldr	r3, [pc, #216]	; (8009208 <HAL_RCC_OscConfig+0x2ac>)
 8009130:	681b      	ldr	r3, [r3, #0]
 8009132:	f003 0302 	and.w	r3, r3, #2
 8009136:	2b00      	cmp	r3, #0
 8009138:	d1f0      	bne.n	800911c <HAL_RCC_OscConfig+0x1c0>
        }
      }
    }
  }
  /*------------------------------ LSI Configuration -------------------------*/
  if(((RCC_OscInitStruct->OscillatorType) & RCC_OSCILLATORTYPE_LSI) == RCC_OSCILLATORTYPE_LSI)
 800913a:	687b      	ldr	r3, [r7, #4]
 800913c:	681b      	ldr	r3, [r3, #0]
 800913e:	f003 0308 	and.w	r3, r3, #8
 8009142:	2b00      	cmp	r3, #0
 8009144:	d030      	beq.n	80091a8 <HAL_RCC_OscConfig+0x24c>
  {
    /* Check the parameters */
    assert_param(IS_RCC_LSI(RCC_OscInitStruct->LSIState));

    /* Check the LSI State */
    if((RCC_OscInitStruct->LSIState)!= RCC_LSI_OFF)
 8009146:	687b      	ldr	r3, [r7, #4]
 8009148:	695b      	ldr	r3, [r3, #20]
 800914a:	2b00      	cmp	r3, #0
 800914c:	d016      	beq.n	800917c <HAL_RCC_OscConfig+0x220>
    {
      /* Enable the Internal Low Speed oscillator (LSI). */
      __HAL_RCC_LSI_ENABLE();
 800914e:	4b30      	ldr	r3, [pc, #192]	; (8009210 <HAL_RCC_OscConfig+0x2b4>)
 8009150:	2201      	movs	r2, #1
 8009152:	601a      	str	r2, [r3, #0]

      /* Get Start Tick*/
      tickstart = HAL_GetTick();
 8009154:	f7ff fc20 	bl	8008998 <HAL_GetTick>
 8009158:	6138      	str	r0, [r7, #16]

      /* Wait till LSI is ready */
      while(__HAL_RCC_GET_FLAG(RCC_FLAG_LSIRDY) == RESET)
 800915a:	e008      	b.n	800916e <HAL_RCC_OscConfig+0x212>
      {
        if((HAL_GetTick() - tickstart ) > LSI_TIMEOUT_VALUE)
 800915c:	f7ff fc1c 	bl	8008998 <HAL_GetTick>
 8009160:	4602      	mov	r2, r0
 8009162:	693b      	ldr	r3, [r7, #16]
 8009164:	1ad3      	subs	r3, r2, r3
 8009166:	2b02      	cmp	r3, #2
 8009168:	d901      	bls.n	800916e <HAL_RCC_OscConfig+0x212>
        {
          return HAL_TIMEOUT;
 800916a:	2303      	movs	r3, #3
 800916c:	e15b      	b.n	8009426 <HAL_RCC_OscConfig+0x4ca>
      while(__HAL_RCC_GET_FLAG(RCC_FLAG_LSIRDY) == RESET)
 800916e:	4b26      	ldr	r3, [pc, #152]	; (8009208 <HAL_RCC_OscConfig+0x2ac>)
 8009170:	6f5b      	ldr	r3, [r3, #116]	; 0x74
 8009172:	f003 0302 	and.w	r3, r3, #2
 8009176:	2b00      	cmp	r3, #0
 8009178:	d0f0      	beq.n	800915c <HAL_RCC_OscConfig+0x200>
 800917a:	e015      	b.n	80091a8 <HAL_RCC_OscConfig+0x24c>
      }
    }
    else
    {
      /* Disable the Internal Low Speed oscillator (LSI). */
      __HAL_RCC_LSI_DISABLE();
 800917c:	4b24      	ldr	r3, [pc, #144]	; (8009210 <HAL_RCC_OscConfig+0x2b4>)
 800917e:	2200      	movs	r2, #0
 8009180:	601a      	str	r2, [r3, #0]

      /* Get Start Tick */
      tickstart = HAL_GetTick();
 8009182:	f7ff fc09 	bl	8008998 <HAL_GetTick>
 8009186:	6138      	str	r0, [r7, #16]

      /* Wait till LSI is ready */
      while(__HAL_RCC_GET_FLAG(RCC_FLAG_LSIRDY) != RESET)
 8009188:	e008      	b.n	800919c <HAL_RCC_OscConfig+0x240>
      {
        if((HAL_GetTick() - tickstart ) > LSI_TIMEOUT_VALUE)
 800918a:	f7ff fc05 	bl	8008998 <HAL_GetTick>
 800918e:	4602      	mov	r2, r0
 8009190:	693b      	ldr	r3, [r7, #16]
 8009192:	1ad3      	subs	r3, r2, r3
 8009194:	2b02      	cmp	r3, #2
 8009196:	d901      	bls.n	800919c <HAL_RCC_OscConfig+0x240>
        {
          return HAL_TIMEOUT;
 8009198:	2303      	movs	r3, #3
 800919a:	e144      	b.n	8009426 <HAL_RCC_OscConfig+0x4ca>
      while(__HAL_RCC_GET_FLAG(RCC_FLAG_LSIRDY) != RESET)
 800919c:	4b1a      	ldr	r3, [pc, #104]	; (8009208 <HAL_RCC_OscConfig+0x2ac>)
 800919e:	6f5b      	ldr	r3, [r3, #116]	; 0x74
 80091a0:	f003 0302 	and.w	r3, r3, #2
 80091a4:	2b00      	cmp	r3, #0
 80091a6:	d1f0      	bne.n	800918a <HAL_RCC_OscConfig+0x22e>
        }
      }
    }
  }
  /*------------------------------ LSE Configuration -------------------------*/
  if(((RCC_OscInitStruct->OscillatorType) & RCC_OSCILLATORTYPE_LSE) == RCC_OSCILLATORTYPE_LSE)
 80091a8:	687b      	ldr	r3, [r7, #4]
 80091aa:	681b      	ldr	r3, [r3, #0]
 80091ac:	f003 0304 	and.w	r3, r3, #4
 80091b0:	2b00      	cmp	r3, #0
 80091b2:	f000 80a0 	beq.w	80092f6 <HAL_RCC_OscConfig+0x39a>
  {
    FlagStatus       pwrclkchanged = RESET;
 80091b6:	2300      	movs	r3, #0
 80091b8:	75fb      	strb	r3, [r7, #23]
    /* Check the parameters */
    assert_param(IS_RCC_LSE(RCC_OscInitStruct->LSEState));

    /* Update LSE configuration in Backup Domain control register    */
    /* Requires to enable write access to Backup Domain of necessary */
    if(__HAL_RCC_PWR_IS_CLK_DISABLED())
 80091ba:	4b13      	ldr	r3, [pc, #76]	; (8009208 <HAL_RCC_OscConfig+0x2ac>)
 80091bc:	6c1b      	ldr	r3, [r3, #64]	; 0x40
 80091be:	f003 5380 	and.w	r3, r3, #268435456	; 0x10000000
 80091c2:	2b00      	cmp	r3, #0
 80091c4:	d10f      	bne.n	80091e6 <HAL_RCC_OscConfig+0x28a>
    {
      __HAL_RCC_PWR_CLK_ENABLE();
 80091c6:	2300      	movs	r3, #0
 80091c8:	60bb      	str	r3, [r7, #8]
 80091ca:	4b0f      	ldr	r3, [pc, #60]	; (8009208 <HAL_RCC_OscConfig+0x2ac>)
 80091cc:	6c1b      	ldr	r3, [r3, #64]	; 0x40
 80091ce:	4a0e      	ldr	r2, [pc, #56]	; (8009208 <HAL_RCC_OscConfig+0x2ac>)
 80091d0:	f043 5380 	orr.w	r3, r3, #268435456	; 0x10000000
 80091d4:	6413      	str	r3, [r2, #64]	; 0x40
 80091d6:	4b0c      	ldr	r3, [pc, #48]	; (8009208 <HAL_RCC_OscConfig+0x2ac>)
 80091d8:	6c1b      	ldr	r3, [r3, #64]	; 0x40
 80091da:	f003 5380 	and.w	r3, r3, #268435456	; 0x10000000
 80091de:	60bb      	str	r3, [r7, #8]
 80091e0:	68bb      	ldr	r3, [r7, #8]
      pwrclkchanged = SET;
 80091e2:	2301      	movs	r3, #1
 80091e4:	75fb      	strb	r3, [r7, #23]
    }

    if(HAL_IS_BIT_CLR(PWR->CR, PWR_CR_DBP))
 80091e6:	4b0b      	ldr	r3, [pc, #44]	; (8009214 <HAL_RCC_OscConfig+0x2b8>)
 80091e8:	681b      	ldr	r3, [r3, #0]
 80091ea:	f403 7380 	and.w	r3, r3, #256	; 0x100
 80091ee:	2b00      	cmp	r3, #0
 80091f0:	d121      	bne.n	8009236 <HAL_RCC_OscConfig+0x2da>
    {
      /* Enable write access to Backup domain */
      SET_BIT(PWR->CR, PWR_CR_DBP);
 80091f2:	4b08      	ldr	r3, [pc, #32]	; (8009214 <HAL_RCC_OscConfig+0x2b8>)
 80091f4:	681b      	ldr	r3, [r3, #0]
 80091f6:	4a07      	ldr	r2, [pc, #28]	; (8009214 <HAL_RCC_OscConfig+0x2b8>)
 80091f8:	f443 7380 	orr.w	r3, r3, #256	; 0x100
 80091fc:	6013      	str	r3, [r2, #0]

      /* Wait for Backup domain Write protection disable */
      tickstart = HAL_GetTick();
 80091fe:	f7ff fbcb 	bl	8008998 <HAL_GetTick>
 8009202:	6138      	str	r0, [r7, #16]

      while(HAL_IS_BIT_CLR(PWR->CR, PWR_CR_DBP))
 8009204:	e011      	b.n	800922a <HAL_RCC_OscConfig+0x2ce>
 8009206:	bf00      	nop
 8009208:	40023800 	.word	0x40023800
 800920c:	42470000 	.word	0x42470000
 8009210:	42470e80 	.word	0x42470e80
 8009214:	40007000 	.word	0x40007000
      {
        if((HAL_GetTick() - tickstart) > RCC_DBP_TIMEOUT_VALUE)
 8009218:	f7ff fbbe 	bl	8008998 <HAL_GetTick>
 800921c:	4602      	mov	r2, r0
 800921e:	693b      	ldr	r3, [r7, #16]
 8009220:	1ad3      	subs	r3, r2, r3
 8009222:	2b02      	cmp	r3, #2
 8009224:	d901      	bls.n	800922a <HAL_RCC_OscConfig+0x2ce>
        {
          return HAL_TIMEOUT;
 8009226:	2303      	movs	r3, #3
 8009228:	e0fd      	b.n	8009426 <HAL_RCC_OscConfig+0x4ca>
      while(HAL_IS_BIT_CLR(PWR->CR, PWR_CR_DBP))
 800922a:	4b81      	ldr	r3, [pc, #516]	; (8009430 <HAL_RCC_OscConfig+0x4d4>)
 800922c:	681b      	ldr	r3, [r3, #0]
 800922e:	f403 7380 	and.w	r3, r3, #256	; 0x100
 8009232:	2b00      	cmp	r3, #0
 8009234:	d0f0      	beq.n	8009218 <HAL_RCC_OscConfig+0x2bc>
        }
      }
    }

    /* Set the new LSE configuration -----------------------------------------*/
    __HAL_RCC_LSE_CONFIG(RCC_OscInitStruct->LSEState);
 8009236:	687b      	ldr	r3, [r7, #4]
 8009238:	689b      	ldr	r3, [r3, #8]
 800923a:	2b01      	cmp	r3, #1
 800923c:	d106      	bne.n	800924c <HAL_RCC_OscConfig+0x2f0>
 800923e:	4b7d      	ldr	r3, [pc, #500]	; (8009434 <HAL_RCC_OscConfig+0x4d8>)
 8009240:	6f1b      	ldr	r3, [r3, #112]	; 0x70
 8009242:	4a7c      	ldr	r2, [pc, #496]	; (8009434 <HAL_RCC_OscConfig+0x4d8>)
 8009244:	f043 0301 	orr.w	r3, r3, #1
 8009248:	6713      	str	r3, [r2, #112]	; 0x70
 800924a:	e01c      	b.n	8009286 <HAL_RCC_OscConfig+0x32a>
 800924c:	687b      	ldr	r3, [r7, #4]
 800924e:	689b      	ldr	r3, [r3, #8]
 8009250:	2b05      	cmp	r3, #5
 8009252:	d10c      	bne.n	800926e <HAL_RCC_OscConfig+0x312>
 8009254:	4b77      	ldr	r3, [pc, #476]	; (8009434 <HAL_RCC_OscConfig+0x4d8>)
 8009256:	6f1b      	ldr	r3, [r3, #112]	; 0x70
 8009258:	4a76      	ldr	r2, [pc, #472]	; (8009434 <HAL_RCC_OscConfig+0x4d8>)
 800925a:	f043 0304 	orr.w	r3, r3, #4
 800925e:	6713      	str	r3, [r2, #112]	; 0x70
 8009260:	4b74      	ldr	r3, [pc, #464]	; (8009434 <HAL_RCC_OscConfig+0x4d8>)
 8009262:	6f1b      	ldr	r3, [r3, #112]	; 0x70
 8009264:	4a73      	ldr	r2, [pc, #460]	; (8009434 <HAL_RCC_OscConfig+0x4d8>)
 8009266:	f043 0301 	orr.w	r3, r3, #1
 800926a:	6713      	str	r3, [r2, #112]	; 0x70
 800926c:	e00b      	b.n	8009286 <HAL_RCC_OscConfig+0x32a>
 800926e:	4b71      	ldr	r3, [pc, #452]	; (8009434 <HAL_RCC_OscConfig+0x4d8>)
 8009270:	6f1b      	ldr	r3, [r3, #112]	; 0x70
 8009272:	4a70      	ldr	r2, [pc, #448]	; (8009434 <HAL_RCC_OscConfig+0x4d8>)
 8009274:	f023 0301 	bic.w	r3, r3, #1
 8009278:	6713      	str	r3, [r2, #112]	; 0x70
 800927a:	4b6e      	ldr	r3, [pc, #440]	; (8009434 <HAL_RCC_OscConfig+0x4d8>)
 800927c:	6f1b      	ldr	r3, [r3, #112]	; 0x70
 800927e:	4a6d      	ldr	r2, [pc, #436]	; (8009434 <HAL_RCC_OscConfig+0x4d8>)
 8009280:	f023 0304 	bic.w	r3, r3, #4
 8009284:	6713      	str	r3, [r2, #112]	; 0x70
    /* Check the LSE State */
    if((RCC_OscInitStruct->LSEState) != RCC_LSE_OFF)
 8009286:	687b      	ldr	r3, [r7, #4]
 8009288:	689b      	ldr	r3, [r3, #8]
 800928a:	2b00      	cmp	r3, #0
 800928c:	d015      	beq.n	80092ba <HAL_RCC_OscConfig+0x35e>
    {
      /* Get Start Tick*/
      tickstart = HAL_GetTick();
 800928e:	f7ff fb83 	bl	8008998 <HAL_GetTick>
 8009292:	6138      	str	r0, [r7, #16]

      /* Wait till LSE is ready */
      while(__HAL_RCC_GET_FLAG(RCC_FLAG_LSERDY) == RESET)
 8009294:	e00a      	b.n	80092ac <HAL_RCC_OscConfig+0x350>
      {
        if((HAL_GetTick() - tickstart ) > RCC_LSE_TIMEOUT_VALUE)
 8009296:	f7ff fb7f 	bl	8008998 <HAL_GetTick>
 800929a:	4602      	mov	r2, r0
 800929c:	693b      	ldr	r3, [r7, #16]
 800929e:	1ad3      	subs	r3, r2, r3
 80092a0:	f241 3288 	movw	r2, #5000	; 0x1388
 80092a4:	4293      	cmp	r3, r2
 80092a6:	d901      	bls.n	80092ac <HAL_RCC_OscConfig+0x350>
        {
          return HAL_TIMEOUT;
 80092a8:	2303      	movs	r3, #3
 80092aa:	e0bc      	b.n	8009426 <HAL_RCC_OscConfig+0x4ca>
      while(__HAL_RCC_GET_FLAG(RCC_FLAG_LSERDY) == RESET)
 80092ac:	4b61      	ldr	r3, [pc, #388]	; (8009434 <HAL_RCC_OscConfig+0x4d8>)
 80092ae:	6f1b      	ldr	r3, [r3, #112]	; 0x70
 80092b0:	f003 0302 	and.w	r3, r3, #2
 80092b4:	2b00      	cmp	r3, #0
 80092b6:	d0ee      	beq.n	8009296 <HAL_RCC_OscConfig+0x33a>
 80092b8:	e014      	b.n	80092e4 <HAL_RCC_OscConfig+0x388>
      }
    }
    else
    {
      /* Get Start Tick */
      tickstart = HAL_GetTick();
 80092ba:	f7ff fb6d 	bl	8008998 <HAL_GetTick>
 80092be:	6138      	str	r0, [r7, #16]

      /* Wait till LSE is ready */
      while(__HAL_RCC_GET_FLAG(RCC_FLAG_LSERDY) != RESET)
 80092c0:	e00a      	b.n	80092d8 <HAL_RCC_OscConfig+0x37c>
      {
        if((HAL_GetTick() - tickstart ) > RCC_LSE_TIMEOUT_VALUE)
 80092c2:	f7ff fb69 	bl	8008998 <HAL_GetTick>
 80092c6:	4602      	mov	r2, r0
 80092c8:	693b      	ldr	r3, [r7, #16]
 80092ca:	1ad3      	subs	r3, r2, r3
 80092cc:	f241 3288 	movw	r2, #5000	; 0x1388
 80092d0:	4293      	cmp	r3, r2
 80092d2:	d901      	bls.n	80092d8 <HAL_RCC_OscConfig+0x37c>
        {
          return HAL_TIMEOUT;
 80092d4:	2303      	movs	r3, #3
 80092d6:	e0a6      	b.n	8009426 <HAL_RCC_OscConfig+0x4ca>
      while(__HAL_RCC_GET_FLAG(RCC_FLAG_LSERDY) != RESET)
 80092d8:	4b56      	ldr	r3, [pc, #344]	; (8009434 <HAL_RCC_OscConfig+0x4d8>)
 80092da:	6f1b      	ldr	r3, [r3, #112]	; 0x70
 80092dc:	f003 0302 	and.w	r3, r3, #2
 80092e0:	2b00      	cmp	r3, #0
 80092e2:	d1ee      	bne.n	80092c2 <HAL_RCC_OscConfig+0x366>
        }
      }
    }

    /* Restore clock configuration if changed */
    if(pwrclkchanged == SET)
 80092e4:	7dfb      	ldrb	r3, [r7, #23]
 80092e6:	2b01      	cmp	r3, #1
 80092e8:	d105      	bne.n	80092f6 <HAL_RCC_OscConfig+0x39a>
    {
      __HAL_RCC_PWR_CLK_DISABLE();
 80092ea:	4b52      	ldr	r3, [pc, #328]	; (8009434 <HAL_RCC_OscConfig+0x4d8>)
 80092ec:	6c1b      	ldr	r3, [r3, #64]	; 0x40
 80092ee:	4a51      	ldr	r2, [pc, #324]	; (8009434 <HAL_RCC_OscConfig+0x4d8>)
 80092f0:	f023 5380 	bic.w	r3, r3, #268435456	; 0x10000000
 80092f4:	6413      	str	r3, [r2, #64]	; 0x40
    }
  }
  /*-------------------------------- PLL Configuration -----------------------*/
  /* Check the parameters */
  assert_param(IS_RCC_PLL(RCC_OscInitStruct->PLL.PLLState));
  if ((RCC_OscInitStruct->PLL.PLLState) != RCC_PLL_NONE)
 80092f6:	687b      	ldr	r3, [r7, #4]
 80092f8:	699b      	ldr	r3, [r3, #24]
 80092fa:	2b00      	cmp	r3, #0
 80092fc:	f000 8092 	beq.w	8009424 <HAL_RCC_OscConfig+0x4c8>
  {
    /* Check if the PLL is used as system clock or not */
    if(__HAL_RCC_GET_SYSCLK_SOURCE() != RCC_CFGR_SWS_PLL)
 8009300:	4b4c      	ldr	r3, [pc, #304]	; (8009434 <HAL_RCC_OscConfig+0x4d8>)
 8009302:	689b      	ldr	r3, [r3, #8]
 8009304:	f003 030c 	and.w	r3, r3, #12
 8009308:	2b08      	cmp	r3, #8
 800930a:	d05c      	beq.n	80093c6 <HAL_RCC_OscConfig+0x46a>
    {
      if((RCC_OscInitStruct->PLL.PLLState) == RCC_PLL_ON)
 800930c:	687b      	ldr	r3, [r7, #4]
 800930e:	699b      	ldr	r3, [r3, #24]
 8009310:	2b02      	cmp	r3, #2
 8009312:	d141      	bne.n	8009398 <HAL_RCC_OscConfig+0x43c>
        assert_param(IS_RCC_PLLN_VALUE(RCC_OscInitStruct->PLL.PLLN));
        assert_param(IS_RCC_PLLP_VALUE(RCC_OscInitStruct->PLL.PLLP));
        assert_param(IS_RCC_PLLQ_VALUE(RCC_OscInitStruct->PLL.PLLQ));

        /* Disable the main PLL. */
        __HAL_RCC_PLL_DISABLE();
 8009314:	4b48      	ldr	r3, [pc, #288]	; (8009438 <HAL_RCC_OscConfig+0x4dc>)
 8009316:	2200      	movs	r2, #0
 8009318:	601a      	str	r2, [r3, #0]

        /* Get Start Tick */
        tickstart = HAL_GetTick();
 800931a:	f7ff fb3d 	bl	8008998 <HAL_GetTick>
 800931e:	6138      	str	r0, [r7, #16]

        /* Wait till PLL is ready */
        while(__HAL_RCC_GET_FLAG(RCC_FLAG_PLLRDY) != RESET)
 8009320:	e008      	b.n	8009334 <HAL_RCC_OscConfig+0x3d8>
        {
          if((HAL_GetTick() - tickstart ) > PLL_TIMEOUT_VALUE)
 8009322:	f7ff fb39 	bl	8008998 <HAL_GetTick>
 8009326:	4602      	mov	r2, r0
 8009328:	693b      	ldr	r3, [r7, #16]
 800932a:	1ad3      	subs	r3, r2, r3
 800932c:	2b02      	cmp	r3, #2
 800932e:	d901      	bls.n	8009334 <HAL_RCC_OscConfig+0x3d8>
          {
            return HAL_TIMEOUT;
 8009330:	2303      	movs	r3, #3
 8009332:	e078      	b.n	8009426 <HAL_RCC_OscConfig+0x4ca>
        while(__HAL_RCC_GET_FLAG(RCC_FLAG_PLLRDY) != RESET)
 8009334:	4b3f      	ldr	r3, [pc, #252]	; (8009434 <HAL_RCC_OscConfig+0x4d8>)
 8009336:	681b      	ldr	r3, [r3, #0]
 8009338:	f003 7300 	and.w	r3, r3, #33554432	; 0x2000000
 800933c:	2b00      	cmp	r3, #0
 800933e:	d1f0      	bne.n	8009322 <HAL_RCC_OscConfig+0x3c6>
          }
        }

        /* Configure the main PLL clock source, multiplication and division factors. */
        WRITE_REG(RCC->PLLCFGR, (RCC_OscInitStruct->PLL.PLLSource                                            | \
 8009340:	687b      	ldr	r3, [r7, #4]
 8009342:	69da      	ldr	r2, [r3, #28]
 8009344:	687b      	ldr	r3, [r7, #4]
 8009346:	6a1b      	ldr	r3, [r3, #32]
 8009348:	431a      	orrs	r2, r3
 800934a:	687b      	ldr	r3, [r7, #4]
 800934c:	6a5b      	ldr	r3, [r3, #36]	; 0x24
 800934e:	019b      	lsls	r3, r3, #6
 8009350:	431a      	orrs	r2, r3
 8009352:	687b      	ldr	r3, [r7, #4]
 8009354:	6a9b      	ldr	r3, [r3, #40]	; 0x28
 8009356:	085b      	lsrs	r3, r3, #1
 8009358:	3b01      	subs	r3, #1
 800935a:	041b      	lsls	r3, r3, #16
 800935c:	431a      	orrs	r2, r3
 800935e:	687b      	ldr	r3, [r7, #4]
 8009360:	6adb      	ldr	r3, [r3, #44]	; 0x2c
 8009362:	061b      	lsls	r3, r3, #24
 8009364:	4933      	ldr	r1, [pc, #204]	; (8009434 <HAL_RCC_OscConfig+0x4d8>)
 8009366:	4313      	orrs	r3, r2
 8009368:	604b      	str	r3, [r1, #4]
                                 RCC_OscInitStruct->PLL.PLLM                                                 | \
                                 (RCC_OscInitStruct->PLL.PLLN << RCC_PLLCFGR_PLLN_Pos)             | \
                                 (((RCC_OscInitStruct->PLL.PLLP >> 1U) - 1U) << RCC_PLLCFGR_PLLP_Pos) | \
                                 (RCC_OscInitStruct->PLL.PLLQ << RCC_PLLCFGR_PLLQ_Pos)));
        /* Enable the main PLL. */
        __HAL_RCC_PLL_ENABLE();
 800936a:	4b33      	ldr	r3, [pc, #204]	; (8009438 <HAL_RCC_OscConfig+0x4dc>)
 800936c:	2201      	movs	r2, #1
 800936e:	601a      	str	r2, [r3, #0]

        /* Get Start Tick */
        tickstart = HAL_GetTick();
 8009370:	f7ff fb12 	bl	8008998 <HAL_GetTick>
 8009374:	6138      	str	r0, [r7, #16]

        /* Wait till PLL is ready */
        while(__HAL_RCC_GET_FLAG(RCC_FLAG_PLLRDY) == RESET)
 8009376:	e008      	b.n	800938a <HAL_RCC_OscConfig+0x42e>
        {
          if((HAL_GetTick() - tickstart ) > PLL_TIMEOUT_VALUE)
 8009378:	f7ff fb0e 	bl	8008998 <HAL_GetTick>
 800937c:	4602      	mov	r2, r0
 800937e:	693b      	ldr	r3, [r7, #16]
 8009380:	1ad3      	subs	r3, r2, r3
 8009382:	2b02      	cmp	r3, #2
 8009384:	d901      	bls.n	800938a <HAL_RCC_OscConfig+0x42e>
          {
            return HAL_TIMEOUT;
 8009386:	2303      	movs	r3, #3
 8009388:	e04d      	b.n	8009426 <HAL_RCC_OscConfig+0x4ca>
        while(__HAL_RCC_GET_FLAG(RCC_FLAG_PLLRDY) == RESET)
 800938a:	4b2a      	ldr	r3, [pc, #168]	; (8009434 <HAL_RCC_OscConfig+0x4d8>)
 800938c:	681b      	ldr	r3, [r3, #0]
 800938e:	f003 7300 	and.w	r3, r3, #33554432	; 0x2000000
 8009392:	2b00      	cmp	r3, #0
 8009394:	d0f0      	beq.n	8009378 <HAL_RCC_OscConfig+0x41c>
 8009396:	e045      	b.n	8009424 <HAL_RCC_OscConfig+0x4c8>
        }
      }
      else
      {
        /* Disable the main PLL. */
        __HAL_RCC_PLL_DISABLE();
 8009398:	4b27      	ldr	r3, [pc, #156]	; (8009438 <HAL_RCC_OscConfig+0x4dc>)
 800939a:	2200      	movs	r2, #0
 800939c:	601a      	str	r2, [r3, #0]

        /* Get Start Tick */
        tickstart = HAL_GetTick();
 800939e:	f7ff fafb 	bl	8008998 <HAL_GetTick>
 80093a2:	6138      	str	r0, [r7, #16]

        /* Wait till PLL is ready */
        while(__HAL_RCC_GET_FLAG(RCC_FLAG_PLLRDY) != RESET)
 80093a4:	e008      	b.n	80093b8 <HAL_RCC_OscConfig+0x45c>
        {
          if((HAL_GetTick() - tickstart ) > PLL_TIMEOUT_VALUE)
 80093a6:	f7ff faf7 	bl	8008998 <HAL_GetTick>
 80093aa:	4602      	mov	r2, r0
 80093ac:	693b      	ldr	r3, [r7, #16]
 80093ae:	1ad3      	subs	r3, r2, r3
 80093b0:	2b02      	cmp	r3, #2
 80093b2:	d901      	bls.n	80093b8 <HAL_RCC_OscConfig+0x45c>
          {
            return HAL_TIMEOUT;
 80093b4:	2303      	movs	r3, #3
 80093b6:	e036      	b.n	8009426 <HAL_RCC_OscConfig+0x4ca>
        while(__HAL_RCC_GET_FLAG(RCC_FLAG_PLLRDY) != RESET)
 80093b8:	4b1e      	ldr	r3, [pc, #120]	; (8009434 <HAL_RCC_OscConfig+0x4d8>)
 80093ba:	681b      	ldr	r3, [r3, #0]
 80093bc:	f003 7300 	and.w	r3, r3, #33554432	; 0x2000000
 80093c0:	2b00      	cmp	r3, #0
 80093c2:	d1f0      	bne.n	80093a6 <HAL_RCC_OscConfig+0x44a>
 80093c4:	e02e      	b.n	8009424 <HAL_RCC_OscConfig+0x4c8>
      }
    }
    else
    {
      /* Check if there is a request to disable the PLL used as System clock source */
      if((RCC_OscInitStruct->PLL.PLLState) == RCC_PLL_OFF)
 80093c6:	687b      	ldr	r3, [r7, #4]
 80093c8:	699b      	ldr	r3, [r3, #24]
 80093ca:	2b01      	cmp	r3, #1
 80093cc:	d101      	bne.n	80093d2 <HAL_RCC_OscConfig+0x476>
      {
        return HAL_ERROR;
 80093ce:	2301      	movs	r3, #1
 80093d0:	e029      	b.n	8009426 <HAL_RCC_OscConfig+0x4ca>
      }
      else
      {
        /* Do not return HAL_ERROR if request repeats the current configuration */
        pll_config = RCC->PLLCFGR;
 80093d2:	4b18      	ldr	r3, [pc, #96]	; (8009434 <HAL_RCC_OscConfig+0x4d8>)
 80093d4:	685b      	ldr	r3, [r3, #4]
 80093d6:	60fb      	str	r3, [r7, #12]
        if((READ_BIT(pll_config, RCC_PLLCFGR_PLLSRC) != RCC_OscInitStruct->PLL.PLLSource) ||
 80093d8:	68fb      	ldr	r3, [r7, #12]
 80093da:	f403 0280 	and.w	r2, r3, #4194304	; 0x400000
 80093de:	687b      	ldr	r3, [r7, #4]
 80093e0:	69db      	ldr	r3, [r3, #28]
 80093e2:	429a      	cmp	r2, r3
 80093e4:	d11c      	bne.n	8009420 <HAL_RCC_OscConfig+0x4c4>
           (READ_BIT(pll_config, RCC_PLLCFGR_PLLM) != RCC_OscInitStruct->PLL.PLLM) ||
 80093e6:	68fb      	ldr	r3, [r7, #12]
 80093e8:	f003 023f 	and.w	r2, r3, #63	; 0x3f
 80093ec:	687b      	ldr	r3, [r7, #4]
 80093ee:	6a1b      	ldr	r3, [r3, #32]
        if((READ_BIT(pll_config, RCC_PLLCFGR_PLLSRC) != RCC_OscInitStruct->PLL.PLLSource) ||
 80093f0:	429a      	cmp	r2, r3
 80093f2:	d115      	bne.n	8009420 <HAL_RCC_OscConfig+0x4c4>
           (READ_BIT(pll_config, RCC_PLLCFGR_PLLN) != RCC_OscInitStruct->PLL.PLLN) ||
 80093f4:	68fa      	ldr	r2, [r7, #12]
 80093f6:	f647 73c0 	movw	r3, #32704	; 0x7fc0
 80093fa:	4013      	ands	r3, r2
 80093fc:	687a      	ldr	r2, [r7, #4]
 80093fe:	6a52      	ldr	r2, [r2, #36]	; 0x24
           (READ_BIT(pll_config, RCC_PLLCFGR_PLLM) != RCC_OscInitStruct->PLL.PLLM) ||
 8009400:	4293      	cmp	r3, r2
 8009402:	d10d      	bne.n	8009420 <HAL_RCC_OscConfig+0x4c4>
           (READ_BIT(pll_config, RCC_PLLCFGR_PLLP) != RCC_OscInitStruct->PLL.PLLP) ||
 8009404:	68fb      	ldr	r3, [r7, #12]
 8009406:	f403 3240 	and.w	r2, r3, #196608	; 0x30000
 800940a:	687b      	ldr	r3, [r7, #4]
 800940c:	6a9b      	ldr	r3, [r3, #40]	; 0x28
           (READ_BIT(pll_config, RCC_PLLCFGR_PLLN) != RCC_OscInitStruct->PLL.PLLN) ||
 800940e:	429a      	cmp	r2, r3
 8009410:	d106      	bne.n	8009420 <HAL_RCC_OscConfig+0x4c4>
           (READ_BIT(pll_config, RCC_PLLCFGR_PLLQ) != RCC_OscInitStruct->PLL.PLLQ))
 8009412:	68fb      	ldr	r3, [r7, #12]
 8009414:	f003 6270 	and.w	r2, r3, #251658240	; 0xf000000
 8009418:	687b      	ldr	r3, [r7, #4]
 800941a:	6adb      	ldr	r3, [r3, #44]	; 0x2c
           (READ_BIT(pll_config, RCC_PLLCFGR_PLLP) != RCC_OscInitStruct->PLL.PLLP) ||
 800941c:	429a      	cmp	r2, r3
 800941e:	d001      	beq.n	8009424 <HAL_RCC_OscConfig+0x4c8>
        {
          return HAL_ERROR;
 8009420:	2301      	movs	r3, #1
 8009422:	e000      	b.n	8009426 <HAL_RCC_OscConfig+0x4ca>
        }
      }
    }
  }
  return HAL_OK;
 8009424:	2300      	movs	r3, #0
}
 8009426:	4618      	mov	r0, r3
 8009428:	3718      	adds	r7, #24
 800942a:	46bd      	mov	sp, r7
 800942c:	bd80      	pop	{r7, pc}
 800942e:	bf00      	nop
 8009430:	40007000 	.word	0x40007000
 8009434:	40023800 	.word	0x40023800
 8009438:	42470060 	.word	0x42470060

0800943c <HAL_RCC_ClockConfig>:
  *         HPRE[3:0] bits to ensure that HCLK not exceed the maximum allowed frequency
  *         (for more details refer to section above "Initialization/de-initialization functions")
  * @retval None
  */
HAL_StatusTypeDef HAL_RCC_ClockConfig(RCC_ClkInitTypeDef  *RCC_ClkInitStruct, uint32_t FLatency)
{
 800943c:	b580      	push	{r7, lr}
 800943e:	b084      	sub	sp, #16
 8009440:	af00      	add	r7, sp, #0
 8009442:	6078      	str	r0, [r7, #4]
 8009444:	6039      	str	r1, [r7, #0]
  uint32_t tickstart;

  /* Check Null pointer */
  if(RCC_ClkInitStruct == NULL)
 8009446:	687b      	ldr	r3, [r7, #4]
 8009448:	2b00      	cmp	r3, #0
 800944a:	d101      	bne.n	8009450 <HAL_RCC_ClockConfig+0x14>
  {
    return HAL_ERROR;
 800944c:	2301      	movs	r3, #1
 800944e:	e0cc      	b.n	80095ea <HAL_RCC_ClockConfig+0x1ae>
  /* To correctly read data from FLASH memory, the number of wait states (LATENCY)
    must be correctly programmed according to the frequency of the CPU clock
    (HCLK) and the supply voltage of the device. */

  /* Increasing the number of wait states because of higher CPU frequency */
  if(FLatency > __HAL_FLASH_GET_LATENCY())
 8009450:	4b68      	ldr	r3, [pc, #416]	; (80095f4 <HAL_RCC_ClockConfig+0x1b8>)
 8009452:	681b      	ldr	r3, [r3, #0]
 8009454:	f003 030f 	and.w	r3, r3, #15
 8009458:	683a      	ldr	r2, [r7, #0]
 800945a:	429a      	cmp	r2, r3
 800945c:	d90c      	bls.n	8009478 <HAL_RCC_ClockConfig+0x3c>
  {
    /* Program the new number of wait states to the LATENCY bits in the FLASH_ACR register */
    __HAL_FLASH_SET_LATENCY(FLatency);
 800945e:	4b65      	ldr	r3, [pc, #404]	; (80095f4 <HAL_RCC_ClockConfig+0x1b8>)
 8009460:	683a      	ldr	r2, [r7, #0]
 8009462:	b2d2      	uxtb	r2, r2
 8009464:	701a      	strb	r2, [r3, #0]

    /* Check that the new number of wait states is taken into account to access the Flash
    memory by reading the FLASH_ACR register */
    if(__HAL_FLASH_GET_LATENCY() != FLatency)
 8009466:	4b63      	ldr	r3, [pc, #396]	; (80095f4 <HAL_RCC_ClockConfig+0x1b8>)
 8009468:	681b      	ldr	r3, [r3, #0]
 800946a:	f003 030f 	and.w	r3, r3, #15
 800946e:	683a      	ldr	r2, [r7, #0]
 8009470:	429a      	cmp	r2, r3
 8009472:	d001      	beq.n	8009478 <HAL_RCC_ClockConfig+0x3c>
    {
      return HAL_ERROR;
 8009474:	2301      	movs	r3, #1
 8009476:	e0b8      	b.n	80095ea <HAL_RCC_ClockConfig+0x1ae>
    }
  }

  /*-------------------------- HCLK Configuration --------------------------*/
  if(((RCC_ClkInitStruct->ClockType) & RCC_CLOCKTYPE_HCLK) == RCC_CLOCKTYPE_HCLK)
 8009478:	687b      	ldr	r3, [r7, #4]
 800947a:	681b      	ldr	r3, [r3, #0]
 800947c:	f003 0302 	and.w	r3, r3, #2
 8009480:	2b00      	cmp	r3, #0
 8009482:	d020      	beq.n	80094c6 <HAL_RCC_ClockConfig+0x8a>
  {
    /* Set the highest APBx dividers in order to ensure that we do not go through
       a non-spec phase whatever we decrease or increase HCLK. */
    if(((RCC_ClkInitStruct->ClockType) & RCC_CLOCKTYPE_PCLK1) == RCC_CLOCKTYPE_PCLK1)
 8009484:	687b      	ldr	r3, [r7, #4]
 8009486:	681b      	ldr	r3, [r3, #0]
 8009488:	f003 0304 	and.w	r3, r3, #4
 800948c:	2b00      	cmp	r3, #0
 800948e:	d005      	beq.n	800949c <HAL_RCC_ClockConfig+0x60>
    {
      MODIFY_REG(RCC->CFGR, RCC_CFGR_PPRE1, RCC_HCLK_DIV16);
 8009490:	4b59      	ldr	r3, [pc, #356]	; (80095f8 <HAL_RCC_ClockConfig+0x1bc>)
 8009492:	689b      	ldr	r3, [r3, #8]
 8009494:	4a58      	ldr	r2, [pc, #352]	; (80095f8 <HAL_RCC_ClockConfig+0x1bc>)
 8009496:	f443 53e0 	orr.w	r3, r3, #7168	; 0x1c00
 800949a:	6093      	str	r3, [r2, #8]
    }

    if(((RCC_ClkInitStruct->ClockType) & RCC_CLOCKTYPE_PCLK2) == RCC_CLOCKTYPE_PCLK2)
 800949c:	687b      	ldr	r3, [r7, #4]
 800949e:	681b      	ldr	r3, [r3, #0]
 80094a0:	f003 0308 	and.w	r3, r3, #8
 80094a4:	2b00      	cmp	r3, #0
 80094a6:	d005      	beq.n	80094b4 <HAL_RCC_ClockConfig+0x78>
    {
      MODIFY_REG(RCC->CFGR, RCC_CFGR_PPRE2, (RCC_HCLK_DIV16 << 3));
 80094a8:	4b53      	ldr	r3, [pc, #332]	; (80095f8 <HAL_RCC_ClockConfig+0x1bc>)
 80094aa:	689b      	ldr	r3, [r3, #8]
 80094ac:	4a52      	ldr	r2, [pc, #328]	; (80095f8 <HAL_RCC_ClockConfig+0x1bc>)
 80094ae:	f443 4360 	orr.w	r3, r3, #57344	; 0xe000
 80094b2:	6093      	str	r3, [r2, #8]
    }

    assert_param(IS_RCC_HCLK(RCC_ClkInitStruct->AHBCLKDivider));
    MODIFY_REG(RCC->CFGR, RCC_CFGR_HPRE, RCC_ClkInitStruct->AHBCLKDivider);
 80094b4:	4b50      	ldr	r3, [pc, #320]	; (80095f8 <HAL_RCC_ClockConfig+0x1bc>)
 80094b6:	689b      	ldr	r3, [r3, #8]
 80094b8:	f023 02f0 	bic.w	r2, r3, #240	; 0xf0
 80094bc:	687b      	ldr	r3, [r7, #4]
 80094be:	689b      	ldr	r3, [r3, #8]
 80094c0:	494d      	ldr	r1, [pc, #308]	; (80095f8 <HAL_RCC_ClockConfig+0x1bc>)
 80094c2:	4313      	orrs	r3, r2
 80094c4:	608b      	str	r3, [r1, #8]
  }

  /*------------------------- SYSCLK Configuration ---------------------------*/
  if(((RCC_ClkInitStruct->ClockType) & RCC_CLOCKTYPE_SYSCLK) == RCC_CLOCKTYPE_SYSCLK)
 80094c6:	687b      	ldr	r3, [r7, #4]
 80094c8:	681b      	ldr	r3, [r3, #0]
 80094ca:	f003 0301 	and.w	r3, r3, #1
 80094ce:	2b00      	cmp	r3, #0
 80094d0:	d044      	beq.n	800955c <HAL_RCC_ClockConfig+0x120>
  {
    assert_param(IS_RCC_SYSCLKSOURCE(RCC_ClkInitStruct->SYSCLKSource));

    /* HSE is selected as System Clock Source */
    if(RCC_ClkInitStruct->SYSCLKSource == RCC_SYSCLKSOURCE_HSE)
 80094d2:	687b      	ldr	r3, [r7, #4]
 80094d4:	685b      	ldr	r3, [r3, #4]
 80094d6:	2b01      	cmp	r3, #1
 80094d8:	d107      	bne.n	80094ea <HAL_RCC_ClockConfig+0xae>
    {
      /* Check the HSE ready flag */
      if(__HAL_RCC_GET_FLAG(RCC_FLAG_HSERDY) == RESET)
 80094da:	4b47      	ldr	r3, [pc, #284]	; (80095f8 <HAL_RCC_ClockConfig+0x1bc>)
 80094dc:	681b      	ldr	r3, [r3, #0]
 80094de:	f403 3300 	and.w	r3, r3, #131072	; 0x20000
 80094e2:	2b00      	cmp	r3, #0
 80094e4:	d119      	bne.n	800951a <HAL_RCC_ClockConfig+0xde>
      {
        return HAL_ERROR;
 80094e6:	2301      	movs	r3, #1
 80094e8:	e07f      	b.n	80095ea <HAL_RCC_ClockConfig+0x1ae>
      }
    }
    /* PLL is selected as System Clock Source */
    else if((RCC_ClkInitStruct->SYSCLKSource == RCC_SYSCLKSOURCE_PLLCLK)   ||
 80094ea:	687b      	ldr	r3, [r7, #4]
 80094ec:	685b      	ldr	r3, [r3, #4]
 80094ee:	2b02      	cmp	r3, #2
 80094f0:	d003      	beq.n	80094fa <HAL_RCC_ClockConfig+0xbe>
            (RCC_ClkInitStruct->SYSCLKSource == RCC_SYSCLKSOURCE_PLLRCLK))
 80094f2:	687b      	ldr	r3, [r7, #4]
 80094f4:	685b      	ldr	r3, [r3, #4]
    else if((RCC_ClkInitStruct->SYSCLKSource == RCC_SYSCLKSOURCE_PLLCLK)   ||
 80094f6:	2b03      	cmp	r3, #3
 80094f8:	d107      	bne.n	800950a <HAL_RCC_ClockConfig+0xce>
    {
      /* Check the PLL ready flag */
      if(__HAL_RCC_GET_FLAG(RCC_FLAG_PLLRDY) == RESET)
 80094fa:	4b3f      	ldr	r3, [pc, #252]	; (80095f8 <HAL_RCC_ClockConfig+0x1bc>)
 80094fc:	681b      	ldr	r3, [r3, #0]
 80094fe:	f003 7300 	and.w	r3, r3, #33554432	; 0x2000000
 8009502:	2b00      	cmp	r3, #0
 8009504:	d109      	bne.n	800951a <HAL_RCC_ClockConfig+0xde>
      {
        return HAL_ERROR;
 8009506:	2301      	movs	r3, #1
 8009508:	e06f      	b.n	80095ea <HAL_RCC_ClockConfig+0x1ae>
    }
    /* HSI is selected as System Clock Source */
    else
    {
      /* Check the HSI ready flag */
      if(__HAL_RCC_GET_FLAG(RCC_FLAG_HSIRDY) == RESET)
 800950a:	4b3b      	ldr	r3, [pc, #236]	; (80095f8 <HAL_RCC_ClockConfig+0x1bc>)
 800950c:	681b      	ldr	r3, [r3, #0]
 800950e:	f003 0302 	and.w	r3, r3, #2
 8009512:	2b00      	cmp	r3, #0
 8009514:	d101      	bne.n	800951a <HAL_RCC_ClockConfig+0xde>
      {
        return HAL_ERROR;
 8009516:	2301      	movs	r3, #1
 8009518:	e067      	b.n	80095ea <HAL_RCC_ClockConfig+0x1ae>
      }
    }

    __HAL_RCC_SYSCLK_CONFIG(RCC_ClkInitStruct->SYSCLKSource);
 800951a:	4b37      	ldr	r3, [pc, #220]	; (80095f8 <HAL_RCC_ClockConfig+0x1bc>)
 800951c:	689b      	ldr	r3, [r3, #8]
 800951e:	f023 0203 	bic.w	r2, r3, #3
 8009522:	687b      	ldr	r3, [r7, #4]
 8009524:	685b      	ldr	r3, [r3, #4]
 8009526:	4934      	ldr	r1, [pc, #208]	; (80095f8 <HAL_RCC_ClockConfig+0x1bc>)
 8009528:	4313      	orrs	r3, r2
 800952a:	608b      	str	r3, [r1, #8]

    /* Get Start Tick */
    tickstart = HAL_GetTick();
 800952c:	f7ff fa34 	bl	8008998 <HAL_GetTick>
 8009530:	60f8      	str	r0, [r7, #12]

    while (__HAL_RCC_GET_SYSCLK_SOURCE() != (RCC_ClkInitStruct->SYSCLKSource << RCC_CFGR_SWS_Pos))
 8009532:	e00a      	b.n	800954a <HAL_RCC_ClockConfig+0x10e>
    {
      if ((HAL_GetTick() - tickstart) > CLOCKSWITCH_TIMEOUT_VALUE)
 8009534:	f7ff fa30 	bl	8008998 <HAL_GetTick>
 8009538:	4602      	mov	r2, r0
 800953a:	68fb      	ldr	r3, [r7, #12]
 800953c:	1ad3      	subs	r3, r2, r3
 800953e:	f241 3288 	movw	r2, #5000	; 0x1388
 8009542:	4293      	cmp	r3, r2
 8009544:	d901      	bls.n	800954a <HAL_RCC_ClockConfig+0x10e>
      {
        return HAL_TIMEOUT;
 8009546:	2303      	movs	r3, #3
 8009548:	e04f      	b.n	80095ea <HAL_RCC_ClockConfig+0x1ae>
    while (__HAL_RCC_GET_SYSCLK_SOURCE() != (RCC_ClkInitStruct->SYSCLKSource << RCC_CFGR_SWS_Pos))
 800954a:	4b2b      	ldr	r3, [pc, #172]	; (80095f8 <HAL_RCC_ClockConfig+0x1bc>)
 800954c:	689b      	ldr	r3, [r3, #8]
 800954e:	f003 020c 	and.w	r2, r3, #12
 8009552:	687b      	ldr	r3, [r7, #4]
 8009554:	685b      	ldr	r3, [r3, #4]
 8009556:	009b      	lsls	r3, r3, #2
 8009558:	429a      	cmp	r2, r3
 800955a:	d1eb      	bne.n	8009534 <HAL_RCC_ClockConfig+0xf8>
      }
    }
  }

  /* Decreasing the number of wait states because of lower CPU frequency */
  if(FLatency < __HAL_FLASH_GET_LATENCY())
 800955c:	4b25      	ldr	r3, [pc, #148]	; (80095f4 <HAL_RCC_ClockConfig+0x1b8>)
 800955e:	681b      	ldr	r3, [r3, #0]
 8009560:	f003 030f 	and.w	r3, r3, #15
 8009564:	683a      	ldr	r2, [r7, #0]
 8009566:	429a      	cmp	r2, r3
 8009568:	d20c      	bcs.n	8009584 <HAL_RCC_ClockConfig+0x148>
  {
     /* Program the new number of wait states to the LATENCY bits in the FLASH_ACR register */
    __HAL_FLASH_SET_LATENCY(FLatency);
 800956a:	4b22      	ldr	r3, [pc, #136]	; (80095f4 <HAL_RCC_ClockConfig+0x1b8>)
 800956c:	683a      	ldr	r2, [r7, #0]
 800956e:	b2d2      	uxtb	r2, r2
 8009570:	701a      	strb	r2, [r3, #0]

    /* Check that the new number of wait states is taken into account to access the Flash
    memory by reading the FLASH_ACR register */
    if(__HAL_FLASH_GET_LATENCY() != FLatency)
 8009572:	4b20      	ldr	r3, [pc, #128]	; (80095f4 <HAL_RCC_ClockConfig+0x1b8>)
 8009574:	681b      	ldr	r3, [r3, #0]
 8009576:	f003 030f 	and.w	r3, r3, #15
 800957a:	683a      	ldr	r2, [r7, #0]
 800957c:	429a      	cmp	r2, r3
 800957e:	d001      	beq.n	8009584 <HAL_RCC_ClockConfig+0x148>
    {
      return HAL_ERROR;
 8009580:	2301      	movs	r3, #1
 8009582:	e032      	b.n	80095ea <HAL_RCC_ClockConfig+0x1ae>
    }
  }

  /*-------------------------- PCLK1 Configuration ---------------------------*/
  if(((RCC_ClkInitStruct->ClockType) & RCC_CLOCKTYPE_PCLK1) == RCC_CLOCKTYPE_PCLK1)
 8009584:	687b      	ldr	r3, [r7, #4]
 8009586:	681b      	ldr	r3, [r3, #0]
 8009588:	f003 0304 	and.w	r3, r3, #4
 800958c:	2b00      	cmp	r3, #0
 800958e:	d008      	beq.n	80095a2 <HAL_RCC_ClockConfig+0x166>
  {
    assert_param(IS_RCC_PCLK(RCC_ClkInitStruct->APB1CLKDivider));
    MODIFY_REG(RCC->CFGR, RCC_CFGR_PPRE1, RCC_ClkInitStruct->APB1CLKDivider);
 8009590:	4b19      	ldr	r3, [pc, #100]	; (80095f8 <HAL_RCC_ClockConfig+0x1bc>)
 8009592:	689b      	ldr	r3, [r3, #8]
 8009594:	f423 52e0 	bic.w	r2, r3, #7168	; 0x1c00
 8009598:	687b      	ldr	r3, [r7, #4]
 800959a:	68db      	ldr	r3, [r3, #12]
 800959c:	4916      	ldr	r1, [pc, #88]	; (80095f8 <HAL_RCC_ClockConfig+0x1bc>)
 800959e:	4313      	orrs	r3, r2
 80095a0:	608b      	str	r3, [r1, #8]
  }

  /*-------------------------- PCLK2 Configuration ---------------------------*/
  if(((RCC_ClkInitStruct->ClockType) & RCC_CLOCKTYPE_PCLK2) == RCC_CLOCKTYPE_PCLK2)
 80095a2:	687b      	ldr	r3, [r7, #4]
 80095a4:	681b      	ldr	r3, [r3, #0]
 80095a6:	f003 0308 	and.w	r3, r3, #8
 80095aa:	2b00      	cmp	r3, #0
 80095ac:	d009      	beq.n	80095c2 <HAL_RCC_ClockConfig+0x186>
  {
    assert_param(IS_RCC_PCLK(RCC_ClkInitStruct->APB2CLKDivider));
    MODIFY_REG(RCC->CFGR, RCC_CFGR_PPRE2, ((RCC_ClkInitStruct->APB2CLKDivider) << 3U));
 80095ae:	4b12      	ldr	r3, [pc, #72]	; (80095f8 <HAL_RCC_ClockConfig+0x1bc>)
 80095b0:	689b      	ldr	r3, [r3, #8]
 80095b2:	f423 4260 	bic.w	r2, r3, #57344	; 0xe000
 80095b6:	687b      	ldr	r3, [r7, #4]
 80095b8:	691b      	ldr	r3, [r3, #16]
 80095ba:	00db      	lsls	r3, r3, #3
 80095bc:	490e      	ldr	r1, [pc, #56]	; (80095f8 <HAL_RCC_ClockConfig+0x1bc>)
 80095be:	4313      	orrs	r3, r2
 80095c0:	608b      	str	r3, [r1, #8]
  }

  /* Update the SystemCoreClock global variable */
  SystemCoreClock = HAL_RCC_GetSysClockFreq() >> AHBPrescTable[(RCC->CFGR & RCC_CFGR_HPRE)>> RCC_CFGR_HPRE_Pos];
 80095c2:	f000 f821 	bl	8009608 <HAL_RCC_GetSysClockFreq>
 80095c6:	4601      	mov	r1, r0
 80095c8:	4b0b      	ldr	r3, [pc, #44]	; (80095f8 <HAL_RCC_ClockConfig+0x1bc>)
 80095ca:	689b      	ldr	r3, [r3, #8]
 80095cc:	091b      	lsrs	r3, r3, #4
 80095ce:	f003 030f 	and.w	r3, r3, #15
 80095d2:	4a0a      	ldr	r2, [pc, #40]	; (80095fc <HAL_RCC_ClockConfig+0x1c0>)
 80095d4:	5cd3      	ldrb	r3, [r2, r3]
 80095d6:	fa21 f303 	lsr.w	r3, r1, r3
 80095da:	4a09      	ldr	r2, [pc, #36]	; (8009600 <HAL_RCC_ClockConfig+0x1c4>)
 80095dc:	6013      	str	r3, [r2, #0]

  /* Configure the source of time base considering new system clocks settings */
  HAL_InitTick (uwTickPrio);
 80095de:	4b09      	ldr	r3, [pc, #36]	; (8009604 <HAL_RCC_ClockConfig+0x1c8>)
 80095e0:	681b      	ldr	r3, [r3, #0]
 80095e2:	4618      	mov	r0, r3
 80095e4:	f7ff f994 	bl	8008910 <HAL_InitTick>

  return HAL_OK;
 80095e8:	2300      	movs	r3, #0
}
 80095ea:	4618      	mov	r0, r3
 80095ec:	3710      	adds	r7, #16
 80095ee:	46bd      	mov	sp, r7
 80095f0:	bd80      	pop	{r7, pc}
 80095f2:	bf00      	nop
 80095f4:	40023c00 	.word	0x40023c00
 80095f8:	40023800 	.word	0x40023800
 80095fc:	08009828 	.word	0x08009828
 8009600:	20000000 	.word	0x20000000
 8009604:	20000004 	.word	0x20000004

08009608 <HAL_RCC_GetSysClockFreq>:
  *
  *
  * @retval SYSCLK frequency
  */
__weak uint32_t HAL_RCC_GetSysClockFreq(void)
{
 8009608:	b5f0      	push	{r4, r5, r6, r7, lr}
 800960a:	b085      	sub	sp, #20
 800960c:	af00      	add	r7, sp, #0
  uint32_t pllm = 0U, pllvco = 0U, pllp = 0U;
 800960e:	2300      	movs	r3, #0
 8009610:	607b      	str	r3, [r7, #4]
 8009612:	2300      	movs	r3, #0
 8009614:	60fb      	str	r3, [r7, #12]
 8009616:	2300      	movs	r3, #0
 8009618:	603b      	str	r3, [r7, #0]
  uint32_t sysclockfreq = 0U;
 800961a:	2300      	movs	r3, #0
 800961c:	60bb      	str	r3, [r7, #8]

  /* Get SYSCLK source -------------------------------------------------------*/
  switch (RCC->CFGR & RCC_CFGR_SWS)
 800961e:	4b63      	ldr	r3, [pc, #396]	; (80097ac <HAL_RCC_GetSysClockFreq+0x1a4>)
 8009620:	689b      	ldr	r3, [r3, #8]
 8009622:	f003 030c 	and.w	r3, r3, #12
 8009626:	2b04      	cmp	r3, #4
 8009628:	d007      	beq.n	800963a <HAL_RCC_GetSysClockFreq+0x32>
 800962a:	2b08      	cmp	r3, #8
 800962c:	d008      	beq.n	8009640 <HAL_RCC_GetSysClockFreq+0x38>
 800962e:	2b00      	cmp	r3, #0
 8009630:	f040 80b4 	bne.w	800979c <HAL_RCC_GetSysClockFreq+0x194>
  {
    case RCC_CFGR_SWS_HSI:  /* HSI used as system clock source */
    {
      sysclockfreq = HSI_VALUE;
 8009634:	4b5e      	ldr	r3, [pc, #376]	; (80097b0 <HAL_RCC_GetSysClockFreq+0x1a8>)
 8009636:	60bb      	str	r3, [r7, #8]
       break;
 8009638:	e0b3      	b.n	80097a2 <HAL_RCC_GetSysClockFreq+0x19a>
    }
    case RCC_CFGR_SWS_HSE:  /* HSE used as system clock  source */
    {
      sysclockfreq = HSE_VALUE;
 800963a:	4b5e      	ldr	r3, [pc, #376]	; (80097b4 <HAL_RCC_GetSysClockFreq+0x1ac>)
 800963c:	60bb      	str	r3, [r7, #8]
      break;
 800963e:	e0b0      	b.n	80097a2 <HAL_RCC_GetSysClockFreq+0x19a>
    }
    case RCC_CFGR_SWS_PLL:  /* PLL used as system clock  source */
    {
      /* PLL_VCO = (HSE_VALUE or HSI_VALUE / PLLM) * PLLN
      SYSCLK = PLL_VCO / PLLP */
      pllm = RCC->PLLCFGR & RCC_PLLCFGR_PLLM;
 8009640:	4b5a      	ldr	r3, [pc, #360]	; (80097ac <HAL_RCC_GetSysClockFreq+0x1a4>)
 8009642:	685b      	ldr	r3, [r3, #4]
 8009644:	f003 033f 	and.w	r3, r3, #63	; 0x3f
 8009648:	607b      	str	r3, [r7, #4]
      if(__HAL_RCC_GET_PLL_OSCSOURCE() != RCC_PLLSOURCE_HSI)
 800964a:	4b58      	ldr	r3, [pc, #352]	; (80097ac <HAL_RCC_GetSysClockFreq+0x1a4>)
 800964c:	685b      	ldr	r3, [r3, #4]
 800964e:	f403 0380 	and.w	r3, r3, #4194304	; 0x400000
 8009652:	2b00      	cmp	r3, #0
 8009654:	d04a      	beq.n	80096ec <HAL_RCC_GetSysClockFreq+0xe4>
      {
        /* HSE used as PLL clock source */
        pllvco = (uint32_t) ((((uint64_t) HSE_VALUE * ((uint64_t) ((RCC->PLLCFGR & RCC_PLLCFGR_PLLN) >> RCC_PLLCFGR_PLLN_Pos)))) / (uint64_t)pllm);
 8009656:	4b55      	ldr	r3, [pc, #340]	; (80097ac <HAL_RCC_GetSysClockFreq+0x1a4>)
 8009658:	685b      	ldr	r3, [r3, #4]
 800965a:	099b      	lsrs	r3, r3, #6
 800965c:	f04f 0400 	mov.w	r4, #0
 8009660:	f240 11ff 	movw	r1, #511	; 0x1ff
 8009664:	f04f 0200 	mov.w	r2, #0
 8009668:	ea03 0501 	and.w	r5, r3, r1
 800966c:	ea04 0602 	and.w	r6, r4, r2
 8009670:	4629      	mov	r1, r5
 8009672:	4632      	mov	r2, r6
 8009674:	f04f 0300 	mov.w	r3, #0
 8009678:	f04f 0400 	mov.w	r4, #0
 800967c:	0154      	lsls	r4, r2, #5
 800967e:	ea44 64d1 	orr.w	r4, r4, r1, lsr #27
 8009682:	014b      	lsls	r3, r1, #5
 8009684:	4619      	mov	r1, r3
 8009686:	4622      	mov	r2, r4
 8009688:	1b49      	subs	r1, r1, r5
 800968a:	eb62 0206 	sbc.w	r2, r2, r6
 800968e:	f04f 0300 	mov.w	r3, #0
 8009692:	f04f 0400 	mov.w	r4, #0
 8009696:	0194      	lsls	r4, r2, #6
 8009698:	ea44 6491 	orr.w	r4, r4, r1, lsr #26
 800969c:	018b      	lsls	r3, r1, #6
 800969e:	1a5b      	subs	r3, r3, r1
 80096a0:	eb64 0402 	sbc.w	r4, r4, r2
 80096a4:	f04f 0100 	mov.w	r1, #0
 80096a8:	f04f 0200 	mov.w	r2, #0
 80096ac:	00e2      	lsls	r2, r4, #3
 80096ae:	ea42 7253 	orr.w	r2, r2, r3, lsr #29
 80096b2:	00d9      	lsls	r1, r3, #3
 80096b4:	460b      	mov	r3, r1
 80096b6:	4614      	mov	r4, r2
 80096b8:	195b      	adds	r3, r3, r5
 80096ba:	eb44 0406 	adc.w	r4, r4, r6
 80096be:	f04f 0100 	mov.w	r1, #0
 80096c2:	f04f 0200 	mov.w	r2, #0
 80096c6:	0262      	lsls	r2, r4, #9
 80096c8:	ea42 52d3 	orr.w	r2, r2, r3, lsr #23
 80096cc:	0259      	lsls	r1, r3, #9
 80096ce:	460b      	mov	r3, r1
 80096d0:	4614      	mov	r4, r2
 80096d2:	4618      	mov	r0, r3
 80096d4:	4621      	mov	r1, r4
 80096d6:	687b      	ldr	r3, [r7, #4]
 80096d8:	f04f 0400 	mov.w	r4, #0
 80096dc:	461a      	mov	r2, r3
 80096de:	4623      	mov	r3, r4
 80096e0:	f7fe fd72 	bl	80081c8 <__aeabi_uldivmod>
 80096e4:	4603      	mov	r3, r0
 80096e6:	460c      	mov	r4, r1
 80096e8:	60fb      	str	r3, [r7, #12]
 80096ea:	e049      	b.n	8009780 <HAL_RCC_GetSysClockFreq+0x178>
      }
      else
      {
        /* HSI used as PLL clock source */
        pllvco = (uint32_t) ((((uint64_t) HSI_VALUE * ((uint64_t) ((RCC->PLLCFGR & RCC_PLLCFGR_PLLN) >> RCC_PLLCFGR_PLLN_Pos)))) / (uint64_t)pllm);
 80096ec:	4b2f      	ldr	r3, [pc, #188]	; (80097ac <HAL_RCC_GetSysClockFreq+0x1a4>)
 80096ee:	685b      	ldr	r3, [r3, #4]
 80096f0:	099b      	lsrs	r3, r3, #6
 80096f2:	f04f 0400 	mov.w	r4, #0
 80096f6:	f240 11ff 	movw	r1, #511	; 0x1ff
 80096fa:	f04f 0200 	mov.w	r2, #0
 80096fe:	ea03 0501 	and.w	r5, r3, r1
 8009702:	ea04 0602 	and.w	r6, r4, r2
 8009706:	4629      	mov	r1, r5
 8009708:	4632      	mov	r2, r6
 800970a:	f04f 0300 	mov.w	r3, #0
 800970e:	f04f 0400 	mov.w	r4, #0
 8009712:	0154      	lsls	r4, r2, #5
 8009714:	ea44 64d1 	orr.w	r4, r4, r1, lsr #27
 8009718:	014b      	lsls	r3, r1, #5
 800971a:	4619      	mov	r1, r3
 800971c:	4622      	mov	r2, r4
 800971e:	1b49      	subs	r1, r1, r5
 8009720:	eb62 0206 	sbc.w	r2, r2, r6
 8009724:	f04f 0300 	mov.w	r3, #0
 8009728:	f04f 0400 	mov.w	r4, #0
 800972c:	0194      	lsls	r4, r2, #6
 800972e:	ea44 6491 	orr.w	r4, r4, r1, lsr #26
 8009732:	018b      	lsls	r3, r1, #6
 8009734:	1a5b      	subs	r3, r3, r1
 8009736:	eb64 0402 	sbc.w	r4, r4, r2
 800973a:	f04f 0100 	mov.w	r1, #0
 800973e:	f04f 0200 	mov.w	r2, #0
 8009742:	00e2      	lsls	r2, r4, #3
 8009744:	ea42 7253 	orr.w	r2, r2, r3, lsr #29
 8009748:	00d9      	lsls	r1, r3, #3
 800974a:	460b      	mov	r3, r1
 800974c:	4614      	mov	r4, r2
 800974e:	195b      	adds	r3, r3, r5
 8009750:	eb44 0406 	adc.w	r4, r4, r6
 8009754:	f04f 0100 	mov.w	r1, #0
 8009758:	f04f 0200 	mov.w	r2, #0
 800975c:	02a2      	lsls	r2, r4, #10
 800975e:	ea42 5293 	orr.w	r2, r2, r3, lsr #22
 8009762:	0299      	lsls	r1, r3, #10
 8009764:	460b      	mov	r3, r1
 8009766:	4614      	mov	r4, r2
 8009768:	4618      	mov	r0, r3
 800976a:	4621      	mov	r1, r4
 800976c:	687b      	ldr	r3, [r7, #4]
 800976e:	f04f 0400 	mov.w	r4, #0
 8009772:	461a      	mov	r2, r3
 8009774:	4623      	mov	r3, r4
 8009776:	f7fe fd27 	bl	80081c8 <__aeabi_uldivmod>
 800977a:	4603      	mov	r3, r0
 800977c:	460c      	mov	r4, r1
 800977e:	60fb      	str	r3, [r7, #12]
      }
      pllp = ((((RCC->PLLCFGR & RCC_PLLCFGR_PLLP) >> RCC_PLLCFGR_PLLP_Pos) + 1U) *2U);
 8009780:	4b0a      	ldr	r3, [pc, #40]	; (80097ac <HAL_RCC_GetSysClockFreq+0x1a4>)
 8009782:	685b      	ldr	r3, [r3, #4]
 8009784:	0c1b      	lsrs	r3, r3, #16
 8009786:	f003 0303 	and.w	r3, r3, #3
 800978a:	3301      	adds	r3, #1
 800978c:	005b      	lsls	r3, r3, #1
 800978e:	603b      	str	r3, [r7, #0]

      sysclockfreq = pllvco/pllp;
 8009790:	68fa      	ldr	r2, [r7, #12]
 8009792:	683b      	ldr	r3, [r7, #0]
 8009794:	fbb2 f3f3 	udiv	r3, r2, r3
 8009798:	60bb      	str	r3, [r7, #8]
      break;
 800979a:	e002      	b.n	80097a2 <HAL_RCC_GetSysClockFreq+0x19a>
    }
    default:
    {
      sysclockfreq = HSI_VALUE;
 800979c:	4b04      	ldr	r3, [pc, #16]	; (80097b0 <HAL_RCC_GetSysClockFreq+0x1a8>)
 800979e:	60bb      	str	r3, [r7, #8]
      break;
 80097a0:	bf00      	nop
    }
  }
  return sysclockfreq;
 80097a2:	68bb      	ldr	r3, [r7, #8]
}
 80097a4:	4618      	mov	r0, r3
 80097a6:	3714      	adds	r7, #20
 80097a8:	46bd      	mov	sp, r7
 80097aa:	bdf0      	pop	{r4, r5, r6, r7, pc}
 80097ac:	40023800 	.word	0x40023800
 80097b0:	00f42400 	.word	0x00f42400
 80097b4:	007a1200 	.word	0x007a1200

080097b8 <__libc_init_array>:
 80097b8:	b570      	push	{r4, r5, r6, lr}
 80097ba:	4e0d      	ldr	r6, [pc, #52]	; (80097f0 <__libc_init_array+0x38>)
 80097bc:	4c0d      	ldr	r4, [pc, #52]	; (80097f4 <__libc_init_array+0x3c>)
 80097be:	1ba4      	subs	r4, r4, r6
 80097c0:	10a4      	asrs	r4, r4, #2
 80097c2:	2500      	movs	r5, #0
 80097c4:	42a5      	cmp	r5, r4
 80097c6:	d109      	bne.n	80097dc <__libc_init_array+0x24>
 80097c8:	4e0b      	ldr	r6, [pc, #44]	; (80097f8 <__libc_init_array+0x40>)
 80097ca:	4c0c      	ldr	r4, [pc, #48]	; (80097fc <__libc_init_array+0x44>)
 80097cc:	f000 f820 	bl	8009810 <_init>
 80097d0:	1ba4      	subs	r4, r4, r6
 80097d2:	10a4      	asrs	r4, r4, #2
 80097d4:	2500      	movs	r5, #0
 80097d6:	42a5      	cmp	r5, r4
 80097d8:	d105      	bne.n	80097e6 <__libc_init_array+0x2e>
 80097da:	bd70      	pop	{r4, r5, r6, pc}
 80097dc:	f856 3025 	ldr.w	r3, [r6, r5, lsl #2]
 80097e0:	4798      	blx	r3
 80097e2:	3501      	adds	r5, #1
 80097e4:	e7ee      	b.n	80097c4 <__libc_init_array+0xc>
 80097e6:	f856 3025 	ldr.w	r3, [r6, r5, lsl #2]
 80097ea:	4798      	blx	r3
 80097ec:	3501      	adds	r5, #1
 80097ee:	e7f2      	b.n	80097d6 <__libc_init_array+0x1e>
 80097f0:	08009840 	.word	0x08009840
 80097f4:	08009840 	.word	0x08009840
 80097f8:	08009840 	.word	0x08009840
 80097fc:	08009844 	.word	0x08009844

08009800 <memset>:
 8009800:	4402      	add	r2, r0
 8009802:	4603      	mov	r3, r0
 8009804:	4293      	cmp	r3, r2
 8009806:	d100      	bne.n	800980a <memset+0xa>
 8009808:	4770      	bx	lr
 800980a:	f803 1b01 	strb.w	r1, [r3], #1
 800980e:	e7f9      	b.n	8009804 <memset+0x4>

08009810 <_init>:
 8009810:	b5f8      	push	{r3, r4, r5, r6, r7, lr}
 8009812:	bf00      	nop
 8009814:	bcf8      	pop	{r3, r4, r5, r6, r7}
 8009816:	bc08      	pop	{r3}
 8009818:	469e      	mov	lr, r3
 800981a:	4770      	bx	lr

0800981c <_fini>:
 800981c:	b5f8      	push	{r3, r4, r5, r6, r7, lr}
 800981e:	bf00      	nop
 8009820:	bcf8      	pop	{r3, r4, r5, r6, r7}
 8009822:	bc08      	pop	{r3}
 8009824:	469e      	mov	lr, r3
 8009826:	4770      	bx	lr
